
main:     file format elf64-x86-64


Disassembly of section .init:

0000000000002000 <_init>:
_init():
    2000:	f3 0f 1e fa          	endbr64 
    2004:	48 83 ec 08          	sub    $0x8,%rsp
    2008:	48 8b 05 d9 cf 00 00 	mov    0xcfd9(%rip),%rax        # efe8 <__gmon_start__>
    200f:	48 85 c0             	test   %rax,%rax
    2012:	74 02                	je     2016 <_init+0x16>
    2014:	ff d0                	callq  *%rax
    2016:	48 83 c4 08          	add    $0x8,%rsp
    201a:	c3                   	retq   

Disassembly of section .plt:

0000000000002020 <.plt>:
    2020:	ff 35 6a cd 00 00    	pushq  0xcd6a(%rip)        # ed90 <_GLOBAL_OFFSET_TABLE_+0x8>
    2026:	f2 ff 25 6b cd 00 00 	bnd jmpq *0xcd6b(%rip)        # ed98 <_GLOBAL_OFFSET_TABLE_+0x10>
    202d:	0f 1f 00             	nopl   (%rax)
    2030:	f3 0f 1e fa          	endbr64 
    2034:	68 00 00 00 00       	pushq  $0x0
    2039:	f2 e9 e1 ff ff ff    	bnd jmpq 2020 <.plt>
    203f:	90                   	nop
    2040:	f3 0f 1e fa          	endbr64 
    2044:	68 01 00 00 00       	pushq  $0x1
    2049:	f2 e9 d1 ff ff ff    	bnd jmpq 2020 <.plt>
    204f:	90                   	nop
    2050:	f3 0f 1e fa          	endbr64 
    2054:	68 02 00 00 00       	pushq  $0x2
    2059:	f2 e9 c1 ff ff ff    	bnd jmpq 2020 <.plt>
    205f:	90                   	nop
    2060:	f3 0f 1e fa          	endbr64 
    2064:	68 03 00 00 00       	pushq  $0x3
    2069:	f2 e9 b1 ff ff ff    	bnd jmpq 2020 <.plt>
    206f:	90                   	nop
    2070:	f3 0f 1e fa          	endbr64 
    2074:	68 04 00 00 00       	pushq  $0x4
    2079:	f2 e9 a1 ff ff ff    	bnd jmpq 2020 <.plt>
    207f:	90                   	nop
    2080:	f3 0f 1e fa          	endbr64 
    2084:	68 05 00 00 00       	pushq  $0x5
    2089:	f2 e9 91 ff ff ff    	bnd jmpq 2020 <.plt>
    208f:	90                   	nop
    2090:	f3 0f 1e fa          	endbr64 
    2094:	68 06 00 00 00       	pushq  $0x6
    2099:	f2 e9 81 ff ff ff    	bnd jmpq 2020 <.plt>
    209f:	90                   	nop
    20a0:	f3 0f 1e fa          	endbr64 
    20a4:	68 07 00 00 00       	pushq  $0x7
    20a9:	f2 e9 71 ff ff ff    	bnd jmpq 2020 <.plt>
    20af:	90                   	nop
    20b0:	f3 0f 1e fa          	endbr64 
    20b4:	68 08 00 00 00       	pushq  $0x8
    20b9:	f2 e9 61 ff ff ff    	bnd jmpq 2020 <.plt>
    20bf:	90                   	nop
    20c0:	f3 0f 1e fa          	endbr64 
    20c4:	68 09 00 00 00       	pushq  $0x9
    20c9:	f2 e9 51 ff ff ff    	bnd jmpq 2020 <.plt>
    20cf:	90                   	nop
    20d0:	f3 0f 1e fa          	endbr64 
    20d4:	68 0a 00 00 00       	pushq  $0xa
    20d9:	f2 e9 41 ff ff ff    	bnd jmpq 2020 <.plt>
    20df:	90                   	nop
    20e0:	f3 0f 1e fa          	endbr64 
    20e4:	68 0b 00 00 00       	pushq  $0xb
    20e9:	f2 e9 31 ff ff ff    	bnd jmpq 2020 <.plt>
    20ef:	90                   	nop
    20f0:	f3 0f 1e fa          	endbr64 
    20f4:	68 0c 00 00 00       	pushq  $0xc
    20f9:	f2 e9 21 ff ff ff    	bnd jmpq 2020 <.plt>
    20ff:	90                   	nop
    2100:	f3 0f 1e fa          	endbr64 
    2104:	68 0d 00 00 00       	pushq  $0xd
    2109:	f2 e9 11 ff ff ff    	bnd jmpq 2020 <.plt>
    210f:	90                   	nop
    2110:	f3 0f 1e fa          	endbr64 
    2114:	68 0e 00 00 00       	pushq  $0xe
    2119:	f2 e9 01 ff ff ff    	bnd jmpq 2020 <.plt>
    211f:	90                   	nop
    2120:	f3 0f 1e fa          	endbr64 
    2124:	68 0f 00 00 00       	pushq  $0xf
    2129:	f2 e9 f1 fe ff ff    	bnd jmpq 2020 <.plt>
    212f:	90                   	nop
    2130:	f3 0f 1e fa          	endbr64 
    2134:	68 10 00 00 00       	pushq  $0x10
    2139:	f2 e9 e1 fe ff ff    	bnd jmpq 2020 <.plt>
    213f:	90                   	nop
    2140:	f3 0f 1e fa          	endbr64 
    2144:	68 11 00 00 00       	pushq  $0x11
    2149:	f2 e9 d1 fe ff ff    	bnd jmpq 2020 <.plt>
    214f:	90                   	nop
    2150:	f3 0f 1e fa          	endbr64 
    2154:	68 12 00 00 00       	pushq  $0x12
    2159:	f2 e9 c1 fe ff ff    	bnd jmpq 2020 <.plt>
    215f:	90                   	nop
    2160:	f3 0f 1e fa          	endbr64 
    2164:	68 13 00 00 00       	pushq  $0x13
    2169:	f2 e9 b1 fe ff ff    	bnd jmpq 2020 <.plt>
    216f:	90                   	nop
    2170:	f3 0f 1e fa          	endbr64 
    2174:	68 14 00 00 00       	pushq  $0x14
    2179:	f2 e9 a1 fe ff ff    	bnd jmpq 2020 <.plt>
    217f:	90                   	nop
    2180:	f3 0f 1e fa          	endbr64 
    2184:	68 15 00 00 00       	pushq  $0x15
    2189:	f2 e9 91 fe ff ff    	bnd jmpq 2020 <.plt>
    218f:	90                   	nop
    2190:	f3 0f 1e fa          	endbr64 
    2194:	68 16 00 00 00       	pushq  $0x16
    2199:	f2 e9 81 fe ff ff    	bnd jmpq 2020 <.plt>
    219f:	90                   	nop
    21a0:	f3 0f 1e fa          	endbr64 
    21a4:	68 17 00 00 00       	pushq  $0x17
    21a9:	f2 e9 71 fe ff ff    	bnd jmpq 2020 <.plt>
    21af:	90                   	nop
    21b0:	f3 0f 1e fa          	endbr64 
    21b4:	68 18 00 00 00       	pushq  $0x18
    21b9:	f2 e9 61 fe ff ff    	bnd jmpq 2020 <.plt>
    21bf:	90                   	nop
    21c0:	f3 0f 1e fa          	endbr64 
    21c4:	68 19 00 00 00       	pushq  $0x19
    21c9:	f2 e9 51 fe ff ff    	bnd jmpq 2020 <.plt>
    21cf:	90                   	nop
    21d0:	f3 0f 1e fa          	endbr64 
    21d4:	68 1a 00 00 00       	pushq  $0x1a
    21d9:	f2 e9 41 fe ff ff    	bnd jmpq 2020 <.plt>
    21df:	90                   	nop
    21e0:	f3 0f 1e fa          	endbr64 
    21e4:	68 1b 00 00 00       	pushq  $0x1b
    21e9:	f2 e9 31 fe ff ff    	bnd jmpq 2020 <.plt>
    21ef:	90                   	nop
    21f0:	f3 0f 1e fa          	endbr64 
    21f4:	68 1c 00 00 00       	pushq  $0x1c
    21f9:	f2 e9 21 fe ff ff    	bnd jmpq 2020 <.plt>
    21ff:	90                   	nop
    2200:	f3 0f 1e fa          	endbr64 
    2204:	68 1d 00 00 00       	pushq  $0x1d
    2209:	f2 e9 11 fe ff ff    	bnd jmpq 2020 <.plt>
    220f:	90                   	nop
    2210:	f3 0f 1e fa          	endbr64 
    2214:	68 1e 00 00 00       	pushq  $0x1e
    2219:	f2 e9 01 fe ff ff    	bnd jmpq 2020 <.plt>
    221f:	90                   	nop
    2220:	f3 0f 1e fa          	endbr64 
    2224:	68 1f 00 00 00       	pushq  $0x1f
    2229:	f2 e9 f1 fd ff ff    	bnd jmpq 2020 <.plt>
    222f:	90                   	nop
    2230:	f3 0f 1e fa          	endbr64 
    2234:	68 20 00 00 00       	pushq  $0x20
    2239:	f2 e9 e1 fd ff ff    	bnd jmpq 2020 <.plt>
    223f:	90                   	nop
    2240:	f3 0f 1e fa          	endbr64 
    2244:	68 21 00 00 00       	pushq  $0x21
    2249:	f2 e9 d1 fd ff ff    	bnd jmpq 2020 <.plt>
    224f:	90                   	nop
    2250:	f3 0f 1e fa          	endbr64 
    2254:	68 22 00 00 00       	pushq  $0x22
    2259:	f2 e9 c1 fd ff ff    	bnd jmpq 2020 <.plt>
    225f:	90                   	nop
    2260:	f3 0f 1e fa          	endbr64 
    2264:	68 23 00 00 00       	pushq  $0x23
    2269:	f2 e9 b1 fd ff ff    	bnd jmpq 2020 <.plt>
    226f:	90                   	nop
    2270:	f3 0f 1e fa          	endbr64 
    2274:	68 24 00 00 00       	pushq  $0x24
    2279:	f2 e9 a1 fd ff ff    	bnd jmpq 2020 <.plt>
    227f:	90                   	nop
    2280:	f3 0f 1e fa          	endbr64 
    2284:	68 25 00 00 00       	pushq  $0x25
    2289:	f2 e9 91 fd ff ff    	bnd jmpq 2020 <.plt>
    228f:	90                   	nop
    2290:	f3 0f 1e fa          	endbr64 
    2294:	68 26 00 00 00       	pushq  $0x26
    2299:	f2 e9 81 fd ff ff    	bnd jmpq 2020 <.plt>
    229f:	90                   	nop
    22a0:	f3 0f 1e fa          	endbr64 
    22a4:	68 27 00 00 00       	pushq  $0x27
    22a9:	f2 e9 71 fd ff ff    	bnd jmpq 2020 <.plt>
    22af:	90                   	nop
    22b0:	f3 0f 1e fa          	endbr64 
    22b4:	68 28 00 00 00       	pushq  $0x28
    22b9:	f2 e9 61 fd ff ff    	bnd jmpq 2020 <.plt>
    22bf:	90                   	nop
    22c0:	f3 0f 1e fa          	endbr64 
    22c4:	68 29 00 00 00       	pushq  $0x29
    22c9:	f2 e9 51 fd ff ff    	bnd jmpq 2020 <.plt>
    22cf:	90                   	nop
    22d0:	f3 0f 1e fa          	endbr64 
    22d4:	68 2a 00 00 00       	pushq  $0x2a
    22d9:	f2 e9 41 fd ff ff    	bnd jmpq 2020 <.plt>
    22df:	90                   	nop
    22e0:	f3 0f 1e fa          	endbr64 
    22e4:	68 2b 00 00 00       	pushq  $0x2b
    22e9:	f2 e9 31 fd ff ff    	bnd jmpq 2020 <.plt>
    22ef:	90                   	nop
    22f0:	f3 0f 1e fa          	endbr64 
    22f4:	68 2c 00 00 00       	pushq  $0x2c
    22f9:	f2 e9 21 fd ff ff    	bnd jmpq 2020 <.plt>
    22ff:	90                   	nop
    2300:	f3 0f 1e fa          	endbr64 
    2304:	68 2d 00 00 00       	pushq  $0x2d
    2309:	f2 e9 11 fd ff ff    	bnd jmpq 2020 <.plt>
    230f:	90                   	nop
    2310:	f3 0f 1e fa          	endbr64 
    2314:	68 2e 00 00 00       	pushq  $0x2e
    2319:	f2 e9 01 fd ff ff    	bnd jmpq 2020 <.plt>
    231f:	90                   	nop
    2320:	f3 0f 1e fa          	endbr64 
    2324:	68 2f 00 00 00       	pushq  $0x2f
    2329:	f2 e9 f1 fc ff ff    	bnd jmpq 2020 <.plt>
    232f:	90                   	nop
    2330:	f3 0f 1e fa          	endbr64 
    2334:	68 30 00 00 00       	pushq  $0x30
    2339:	f2 e9 e1 fc ff ff    	bnd jmpq 2020 <.plt>
    233f:	90                   	nop
    2340:	f3 0f 1e fa          	endbr64 
    2344:	68 31 00 00 00       	pushq  $0x31
    2349:	f2 e9 d1 fc ff ff    	bnd jmpq 2020 <.plt>
    234f:	90                   	nop
    2350:	f3 0f 1e fa          	endbr64 
    2354:	68 32 00 00 00       	pushq  $0x32
    2359:	f2 e9 c1 fc ff ff    	bnd jmpq 2020 <.plt>
    235f:	90                   	nop
    2360:	f3 0f 1e fa          	endbr64 
    2364:	68 33 00 00 00       	pushq  $0x33
    2369:	f2 e9 b1 fc ff ff    	bnd jmpq 2020 <.plt>
    236f:	90                   	nop
    2370:	f3 0f 1e fa          	endbr64 
    2374:	68 34 00 00 00       	pushq  $0x34
    2379:	f2 e9 a1 fc ff ff    	bnd jmpq 2020 <.plt>
    237f:	90                   	nop
    2380:	f3 0f 1e fa          	endbr64 
    2384:	68 35 00 00 00       	pushq  $0x35
    2389:	f2 e9 91 fc ff ff    	bnd jmpq 2020 <.plt>
    238f:	90                   	nop
    2390:	f3 0f 1e fa          	endbr64 
    2394:	68 36 00 00 00       	pushq  $0x36
    2399:	f2 e9 81 fc ff ff    	bnd jmpq 2020 <.plt>
    239f:	90                   	nop
    23a0:	f3 0f 1e fa          	endbr64 
    23a4:	68 37 00 00 00       	pushq  $0x37
    23a9:	f2 e9 71 fc ff ff    	bnd jmpq 2020 <.plt>
    23af:	90                   	nop
    23b0:	f3 0f 1e fa          	endbr64 
    23b4:	68 38 00 00 00       	pushq  $0x38
    23b9:	f2 e9 61 fc ff ff    	bnd jmpq 2020 <.plt>
    23bf:	90                   	nop
    23c0:	f3 0f 1e fa          	endbr64 
    23c4:	68 39 00 00 00       	pushq  $0x39
    23c9:	f2 e9 51 fc ff ff    	bnd jmpq 2020 <.plt>
    23cf:	90                   	nop
    23d0:	f3 0f 1e fa          	endbr64 
    23d4:	68 3a 00 00 00       	pushq  $0x3a
    23d9:	f2 e9 41 fc ff ff    	bnd jmpq 2020 <.plt>
    23df:	90                   	nop
    23e0:	f3 0f 1e fa          	endbr64 
    23e4:	68 3b 00 00 00       	pushq  $0x3b
    23e9:	f2 e9 31 fc ff ff    	bnd jmpq 2020 <.plt>
    23ef:	90                   	nop
    23f0:	f3 0f 1e fa          	endbr64 
    23f4:	68 3c 00 00 00       	pushq  $0x3c
    23f9:	f2 e9 21 fc ff ff    	bnd jmpq 2020 <.plt>
    23ff:	90                   	nop
    2400:	f3 0f 1e fa          	endbr64 
    2404:	68 3d 00 00 00       	pushq  $0x3d
    2409:	f2 e9 11 fc ff ff    	bnd jmpq 2020 <.plt>
    240f:	90                   	nop
    2410:	f3 0f 1e fa          	endbr64 
    2414:	68 3e 00 00 00       	pushq  $0x3e
    2419:	f2 e9 01 fc ff ff    	bnd jmpq 2020 <.plt>
    241f:	90                   	nop
    2420:	f3 0f 1e fa          	endbr64 
    2424:	68 3f 00 00 00       	pushq  $0x3f
    2429:	f2 e9 f1 fb ff ff    	bnd jmpq 2020 <.plt>
    242f:	90                   	nop
    2430:	f3 0f 1e fa          	endbr64 
    2434:	68 40 00 00 00       	pushq  $0x40
    2439:	f2 e9 e1 fb ff ff    	bnd jmpq 2020 <.plt>
    243f:	90                   	nop
    2440:	f3 0f 1e fa          	endbr64 
    2444:	68 41 00 00 00       	pushq  $0x41
    2449:	f2 e9 d1 fb ff ff    	bnd jmpq 2020 <.plt>
    244f:	90                   	nop
    2450:	f3 0f 1e fa          	endbr64 
    2454:	68 42 00 00 00       	pushq  $0x42
    2459:	f2 e9 c1 fb ff ff    	bnd jmpq 2020 <.plt>
    245f:	90                   	nop
    2460:	f3 0f 1e fa          	endbr64 
    2464:	68 43 00 00 00       	pushq  $0x43
    2469:	f2 e9 b1 fb ff ff    	bnd jmpq 2020 <.plt>
    246f:	90                   	nop
    2470:	f3 0f 1e fa          	endbr64 
    2474:	68 44 00 00 00       	pushq  $0x44
    2479:	f2 e9 a1 fb ff ff    	bnd jmpq 2020 <.plt>
    247f:	90                   	nop

Disassembly of section .plt.got:

0000000000002480 <__cxa_finalize@plt>:
    2480:	f3 0f 1e fa          	endbr64 
    2484:	f2 ff 25 3d cb 00 00 	bnd jmpq *0xcb3d(%rip)        # efc8 <__cxa_finalize@GLIBC_2.2.5>
    248b:	0f 1f 44 00 00       	nopl   0x0(%rax,%rax,1)

Disassembly of section .plt.sec:

0000000000002490 <_ZNKSt7__cxx1112basic_stringIcSt11char_traitsIcESaIcEE7compareERKS4_@plt>:
    2490:	f3 0f 1e fa          	endbr64 
    2494:	f2 ff 25 05 c9 00 00 	bnd jmpq *0xc905(%rip)        # eda0 <_ZNKSt7__cxx1112basic_stringIcSt11char_traitsIcESaIcEE7compareERKS4_@GLIBCXX_3.4.21>
    249b:	0f 1f 44 00 00       	nopl   0x0(%rax,%rax,1)

00000000000024a0 <__errno_location@plt>:
    24a0:	f3 0f 1e fa          	endbr64 
    24a4:	f2 ff 25 fd c8 00 00 	bnd jmpq *0xc8fd(%rip)        # eda8 <__errno_location@GLIBC_2.2.5>
    24ab:	0f 1f 44 00 00       	nopl   0x0(%rax,%rax,1)

00000000000024b0 <printf@plt>:
    24b0:	f3 0f 1e fa          	endbr64 
    24b4:	f2 ff 25 f5 c8 00 00 	bnd jmpq *0xc8f5(%rip)        # edb0 <printf@GLIBC_2.2.5>
    24bb:	0f 1f 44 00 00       	nopl   0x0(%rax,%rax,1)

00000000000024c0 <_ZNSt6chrono3_V212system_clock3nowEv@plt>:
    24c0:	f3 0f 1e fa          	endbr64 
    24c4:	f2 ff 25 ed c8 00 00 	bnd jmpq *0xc8ed(%rip)        # edb8 <_ZNSt6chrono3_V212system_clock3nowEv@GLIBCXX_3.4.19>
    24cb:	0f 1f 44 00 00       	nopl   0x0(%rax,%rax,1)

00000000000024d0 <syscall@plt>:
    24d0:	f3 0f 1e fa          	endbr64 
    24d4:	f2 ff 25 e5 c8 00 00 	bnd jmpq *0xc8e5(%rip)        # edc0 <syscall@GLIBC_2.2.5>
    24db:	0f 1f 44 00 00       	nopl   0x0(%rax,%rax,1)

00000000000024e0 <_ZSt29_Rb_tree_insert_and_rebalancebPSt18_Rb_tree_node_baseS0_RS_@plt>:
    24e0:	f3 0f 1e fa          	endbr64 
    24e4:	f2 ff 25 dd c8 00 00 	bnd jmpq *0xc8dd(%rip)        # edc8 <_ZSt29_Rb_tree_insert_and_rebalancebPSt18_Rb_tree_node_baseS0_RS_@GLIBCXX_3.4>
    24eb:	0f 1f 44 00 00       	nopl   0x0(%rax,%rax,1)

00000000000024f0 <_ZNSt14basic_ifstreamIcSt11char_traitsIcEE5closeEv@plt>:
    24f0:	f3 0f 1e fa          	endbr64 
    24f4:	f2 ff 25 d5 c8 00 00 	bnd jmpq *0xc8d5(%rip)        # edd0 <_ZNSt14basic_ifstreamIcSt11char_traitsIcEE5closeEv@GLIBCXX_3.4>
    24fb:	0f 1f 44 00 00       	nopl   0x0(%rax,%rax,1)

0000000000002500 <_ZNSolsEm@plt>:
    2500:	f3 0f 1e fa          	endbr64 
    2504:	f2 ff 25 cd c8 00 00 	bnd jmpq *0xc8cd(%rip)        # edd8 <_ZNSolsEm@GLIBCXX_3.4>
    250b:	0f 1f 44 00 00       	nopl   0x0(%rax,%rax,1)

0000000000002510 <_ZNSt14basic_ifstreamIcSt11char_traitsIcEED1Ev@plt>:
    2510:	f3 0f 1e fa          	endbr64 
    2514:	f2 ff 25 c5 c8 00 00 	bnd jmpq *0xc8c5(%rip)        # ede0 <_ZNSt14basic_ifstreamIcSt11char_traitsIcEED1Ev@GLIBCXX_3.4>
    251b:	0f 1f 44 00 00       	nopl   0x0(%rax,%rax,1)

0000000000002520 <warn@plt>:
    2520:	f3 0f 1e fa          	endbr64 
    2524:	f2 ff 25 bd c8 00 00 	bnd jmpq *0xc8bd(%rip)        # ede8 <warn@GLIBC_2.2.5>
    252b:	0f 1f 44 00 00       	nopl   0x0(%rax,%rax,1)

0000000000002530 <strerror@plt>:
    2530:	f3 0f 1e fa          	endbr64 
    2534:	f2 ff 25 b5 c8 00 00 	bnd jmpq *0xc8b5(%rip)        # edf0 <strerror@GLIBC_2.2.5>
    253b:	0f 1f 44 00 00       	nopl   0x0(%rax,%rax,1)

0000000000002540 <_ZSt17__throw_bad_allocv@plt>:
    2540:	f3 0f 1e fa          	endbr64 
    2544:	f2 ff 25 ad c8 00 00 	bnd jmpq *0xc8ad(%rip)        # edf8 <_ZSt17__throw_bad_allocv@GLIBCXX_3.4>
    254b:	0f 1f 44 00 00       	nopl   0x0(%rax,%rax,1)

0000000000002550 <strchr@plt>:
    2550:	f3 0f 1e fa          	endbr64 
    2554:	f2 ff 25 a5 c8 00 00 	bnd jmpq *0xc8a5(%rip)        # ee00 <strchr@GLIBC_2.2.5>
    255b:	0f 1f 44 00 00       	nopl   0x0(%rax,%rax,1)

0000000000002560 <__cxa_begin_catch@plt>:
    2560:	f3 0f 1e fa          	endbr64 
    2564:	f2 ff 25 9d c8 00 00 	bnd jmpq *0xc89d(%rip)        # ee08 <__cxa_begin_catch@CXXABI_1.3>
    256b:	0f 1f 44 00 00       	nopl   0x0(%rax,%rax,1)

0000000000002570 <_ZNSt7__cxx1112basic_stringIcSt11char_traitsIcESaIcEEC1ERKS4_@plt>:
    2570:	f3 0f 1e fa          	endbr64 
    2574:	f2 ff 25 95 c8 00 00 	bnd jmpq *0xc895(%rip)        # ee10 <_ZNSt7__cxx1112basic_stringIcSt11char_traitsIcESaIcEEC1ERKS4_@GLIBCXX_3.4.21>
    257b:	0f 1f 44 00 00       	nopl   0x0(%rax,%rax,1)

0000000000002580 <_ZNKSt9basic_iosIcSt11char_traitsIcEEntEv@plt>:
    2580:	f3 0f 1e fa          	endbr64 
    2584:	f2 ff 25 8d c8 00 00 	bnd jmpq *0xc88d(%rip)        # ee18 <_ZNKSt9basic_iosIcSt11char_traitsIcEEntEv@GLIBCXX_3.4>
    258b:	0f 1f 44 00 00       	nopl   0x0(%rax,%rax,1)

0000000000002590 <_ZSt20__throw_length_errorPKc@plt>:
    2590:	f3 0f 1e fa          	endbr64 
    2594:	f2 ff 25 85 c8 00 00 	bnd jmpq *0xc885(%rip)        # ee20 <_ZSt20__throw_length_errorPKc@GLIBCXX_3.4>
    259b:	0f 1f 44 00 00       	nopl   0x0(%rax,%rax,1)

00000000000025a0 <memset@plt>:
    25a0:	f3 0f 1e fa          	endbr64 
    25a4:	f2 ff 25 7d c8 00 00 	bnd jmpq *0xc87d(%rip)        # ee28 <memset@GLIBC_2.2.5>
    25ab:	0f 1f 44 00 00       	nopl   0x0(%rax,%rax,1)

00000000000025b0 <_ZNSt7__cxx1112basic_stringIcSt11char_traitsIcESaIcEEC1EOS4_@plt>:
    25b0:	f3 0f 1e fa          	endbr64 
    25b4:	f2 ff 25 75 c8 00 00 	bnd jmpq *0xc875(%rip)        # ee30 <_ZNSt7__cxx1112basic_stringIcSt11char_traitsIcESaIcEEC1EOS4_@GLIBCXX_3.4.21>
    25bb:	0f 1f 44 00 00       	nopl   0x0(%rax,%rax,1)

00000000000025c0 <_ZNSirsERi@plt>:
    25c0:	f3 0f 1e fa          	endbr64 
    25c4:	f2 ff 25 6d c8 00 00 	bnd jmpq *0xc86d(%rip)        # ee38 <_ZNSirsERi@GLIBCXX_3.4>
    25cb:	0f 1f 44 00 00       	nopl   0x0(%rax,%rax,1)

00000000000025d0 <_ZNSt7__cxx1112basic_stringIcSt11char_traitsIcESaIcEED1Ev@plt>:
    25d0:	f3 0f 1e fa          	endbr64 
    25d4:	f2 ff 25 65 c8 00 00 	bnd jmpq *0xc865(%rip)        # ee40 <_ZNSt7__cxx1112basic_stringIcSt11char_traitsIcESaIcEED1Ev@GLIBCXX_3.4.21>
    25db:	0f 1f 44 00 00       	nopl   0x0(%rax,%rax,1)

00000000000025e0 <sysconf@plt>:
    25e0:	f3 0f 1e fa          	endbr64 
    25e4:	f2 ff 25 5d c8 00 00 	bnd jmpq *0xc85d(%rip)        # ee48 <sysconf@GLIBC_2.2.5>
    25eb:	0f 1f 44 00 00       	nopl   0x0(%rax,%rax,1)

00000000000025f0 <_ZSt18_Rb_tree_incrementPSt18_Rb_tree_node_base@plt>:
    25f0:	f3 0f 1e fa          	endbr64 
    25f4:	f2 ff 25 55 c8 00 00 	bnd jmpq *0xc855(%rip)        # ee50 <_ZSt18_Rb_tree_incrementPSt18_Rb_tree_node_base@GLIBCXX_3.4>
    25fb:	0f 1f 44 00 00       	nopl   0x0(%rax,%rax,1)

0000000000002600 <memcpy@plt>:
    2600:	f3 0f 1e fa          	endbr64 
    2604:	f2 ff 25 4d c8 00 00 	bnd jmpq *0xc84d(%rip)        # ee58 <memcpy@GLIBC_2.14>
    260b:	0f 1f 44 00 00       	nopl   0x0(%rax,%rax,1)

0000000000002610 <perror@plt>:
    2610:	f3 0f 1e fa          	endbr64 
    2614:	f2 ff 25 45 c8 00 00 	bnd jmpq *0xc845(%rip)        # ee60 <perror@GLIBC_2.2.5>
    261b:	0f 1f 44 00 00       	nopl   0x0(%rax,%rax,1)

0000000000002620 <__cxa_atexit@plt>:
    2620:	f3 0f 1e fa          	endbr64 
    2624:	f2 ff 25 3d c8 00 00 	bnd jmpq *0xc83d(%rip)        # ee68 <__cxa_atexit@GLIBC_2.2.5>
    262b:	0f 1f 44 00 00       	nopl   0x0(%rax,%rax,1)

0000000000002630 <_ZStlsIcSt11char_traitsIcESaIcEERSt13basic_ostreamIT_T0_ES7_RKNSt7__cxx1112basic_stringIS4_S5_T1_EE@plt>:
    2630:	f3 0f 1e fa          	endbr64 
    2634:	f2 ff 25 35 c8 00 00 	bnd jmpq *0xc835(%rip)        # ee70 <_ZStlsIcSt11char_traitsIcESaIcEERSt13basic_ostreamIT_T0_ES7_RKNSt7__cxx1112basic_stringIS4_S5_T1_EE@GLIBCXX_3.4.21>
    263b:	0f 1f 44 00 00       	nopl   0x0(%rax,%rax,1)

0000000000002640 <setlocale@plt>:
    2640:	f3 0f 1e fa          	endbr64 
    2644:	f2 ff 25 2d c8 00 00 	bnd jmpq *0xc82d(%rip)        # ee78 <setlocale@GLIBC_2.2.5>
    264b:	0f 1f 44 00 00       	nopl   0x0(%rax,%rax,1)

0000000000002650 <err@plt>:
    2650:	f3 0f 1e fa          	endbr64 
    2654:	f2 ff 25 25 c8 00 00 	bnd jmpq *0xc825(%rip)        # ee80 <err@GLIBC_2.2.5>
    265b:	0f 1f 44 00 00       	nopl   0x0(%rax,%rax,1)

0000000000002660 <_ZdlPv@plt>:
    2660:	f3 0f 1e fa          	endbr64 
    2664:	f2 ff 25 1d c8 00 00 	bnd jmpq *0xc81d(%rip)        # ee88 <_ZdlPv@GLIBCXX_3.4>
    266b:	0f 1f 44 00 00       	nopl   0x0(%rax,%rax,1)

0000000000002670 <_ZStlsISt11char_traitsIcEERSt13basic_ostreamIcT_ES5_PKc@plt>:
    2670:	f3 0f 1e fa          	endbr64 
    2674:	f2 ff 25 15 c8 00 00 	bnd jmpq *0xc815(%rip)        # ee90 <_ZStlsISt11char_traitsIcEERSt13basic_ostreamIcT_ES5_PKc@GLIBCXX_3.4>
    267b:	0f 1f 44 00 00       	nopl   0x0(%rax,%rax,1)

0000000000002680 <_Znwm@plt>:
    2680:	f3 0f 1e fa          	endbr64 
    2684:	f2 ff 25 0d c8 00 00 	bnd jmpq *0xc80d(%rip)        # ee98 <_Znwm@GLIBCXX_3.4>
    268b:	0f 1f 44 00 00       	nopl   0x0(%rax,%rax,1)

0000000000002690 <_ZNKSt7__cxx1112basic_stringIcSt11char_traitsIcESaIcEE6substrEmm@plt>:
    2690:	f3 0f 1e fa          	endbr64 
    2694:	f2 ff 25 05 c8 00 00 	bnd jmpq *0xc805(%rip)        # eea0 <_ZNKSt7__cxx1112basic_stringIcSt11char_traitsIcESaIcEE6substrEmm@GLIBCXX_3.4.21>
    269b:	0f 1f 44 00 00       	nopl   0x0(%rax,%rax,1)

00000000000026a0 <_ZSt18_Rb_tree_decrementPSt18_Rb_tree_node_base@plt>:
    26a0:	f3 0f 1e fa          	endbr64 
    26a4:	f2 ff 25 fd c7 00 00 	bnd jmpq *0xc7fd(%rip)        # eea8 <_ZSt18_Rb_tree_decrementPSt18_Rb_tree_node_base@GLIBCXX_3.4>
    26ab:	0f 1f 44 00 00       	nopl   0x0(%rax,%rax,1)

00000000000026b0 <_ZNSolsEPFRSoS_E@plt>:
    26b0:	f3 0f 1e fa          	endbr64 
    26b4:	f2 ff 25 f5 c7 00 00 	bnd jmpq *0xc7f5(%rip)        # eeb0 <_ZNSolsEPFRSoS_E@GLIBCXX_3.4>
    26bb:	0f 1f 44 00 00       	nopl   0x0(%rax,%rax,1)

00000000000026c0 <warnx@plt>:
    26c0:	f3 0f 1e fa          	endbr64 
    26c4:	f2 ff 25 ed c7 00 00 	bnd jmpq *0xc7ed(%rip)        # eeb8 <warnx@GLIBC_2.2.5>
    26cb:	0f 1f 44 00 00       	nopl   0x0(%rax,%rax,1)

00000000000026d0 <_ZNSaIcED1Ev@plt>:
    26d0:	f3 0f 1e fa          	endbr64 
    26d4:	f2 ff 25 e5 c7 00 00 	bnd jmpq *0xc7e5(%rip)        # eec0 <_ZNSaIcED1Ev@GLIBCXX_3.4>
    26db:	0f 1f 44 00 00       	nopl   0x0(%rax,%rax,1)

00000000000026e0 <__stack_chk_fail@plt>:
    26e0:	f3 0f 1e fa          	endbr64 
    26e4:	f2 ff 25 dd c7 00 00 	bnd jmpq *0xc7dd(%rip)        # eec8 <__stack_chk_fail@GLIBC_2.4>
    26eb:	0f 1f 44 00 00       	nopl   0x0(%rax,%rax,1)

00000000000026f0 <free@plt>:
    26f0:	f3 0f 1e fa          	endbr64 
    26f4:	f2 ff 25 d5 c7 00 00 	bnd jmpq *0xc7d5(%rip)        # eed0 <free@GLIBC_2.2.5>
    26fb:	0f 1f 44 00 00       	nopl   0x0(%rax,%rax,1)

0000000000002700 <exit@plt>:
    2700:	f3 0f 1e fa          	endbr64 
    2704:	f2 ff 25 cd c7 00 00 	bnd jmpq *0xc7cd(%rip)        # eed8 <exit@GLIBC_2.2.5>
    270b:	0f 1f 44 00 00       	nopl   0x0(%rax,%rax,1)

0000000000002710 <fputc@plt>:
    2710:	f3 0f 1e fa          	endbr64 
    2714:	f2 ff 25 c5 c7 00 00 	bnd jmpq *0xc7c5(%rip)        # eee0 <fputc@GLIBC_2.2.5>
    271b:	0f 1f 44 00 00       	nopl   0x0(%rax,%rax,1)

0000000000002720 <_ZNKSt9basic_iosIcSt11char_traitsIcEEcvbEv@plt>:
    2720:	f3 0f 1e fa          	endbr64 
    2724:	f2 ff 25 bd c7 00 00 	bnd jmpq *0xc7bd(%rip)        # eee8 <_ZNKSt9basic_iosIcSt11char_traitsIcEEcvbEv@GLIBCXX_3.4.21>
    272b:	0f 1f 44 00 00       	nopl   0x0(%rax,%rax,1)

0000000000002730 <prctl@plt>:
    2730:	f3 0f 1e fa          	endbr64 
    2734:	f2 ff 25 b5 c7 00 00 	bnd jmpq *0xc7b5(%rip)        # eef0 <prctl@GLIBC_2.2.5>
    273b:	0f 1f 44 00 00       	nopl   0x0(%rax,%rax,1)

0000000000002740 <malloc@plt>:
    2740:	f3 0f 1e fa          	endbr64 
    2744:	f2 ff 25 ad c7 00 00 	bnd jmpq *0xc7ad(%rip)        # eef8 <malloc@GLIBC_2.2.5>
    274b:	0f 1f 44 00 00       	nopl   0x0(%rax,%rax,1)

0000000000002750 <_ZNSt7__cxx1112basic_stringIcSt11char_traitsIcESaIcEEaSEPKc@plt>:
    2750:	f3 0f 1e fa          	endbr64 
    2754:	f2 ff 25 a5 c7 00 00 	bnd jmpq *0xc7a5(%rip)        # ef00 <_ZNSt7__cxx1112basic_stringIcSt11char_traitsIcESaIcEEaSEPKc@GLIBCXX_3.4.21>
    275b:	0f 1f 44 00 00       	nopl   0x0(%rax,%rax,1)

0000000000002760 <_ZNSt7__cxx1112basic_stringIcSt11char_traitsIcESaIcEEC1EPKcRKS3_@plt>:
    2760:	f3 0f 1e fa          	endbr64 
    2764:	f2 ff 25 9d c7 00 00 	bnd jmpq *0xc79d(%rip)        # ef08 <_ZNSt7__cxx1112basic_stringIcSt11char_traitsIcESaIcEEC1EPKcRKS3_@GLIBCXX_3.4.21>
    276b:	0f 1f 44 00 00       	nopl   0x0(%rax,%rax,1)

0000000000002770 <_ZNSt7__cxx1112basic_stringIcSt11char_traitsIcESaIcEEC1Ev@plt>:
    2770:	f3 0f 1e fa          	endbr64 
    2774:	f2 ff 25 95 c7 00 00 	bnd jmpq *0xc795(%rip)        # ef10 <_ZNSt7__cxx1112basic_stringIcSt11char_traitsIcESaIcEEC1Ev@GLIBCXX_3.4.21>
    277b:	0f 1f 44 00 00       	nopl   0x0(%rax,%rax,1)

0000000000002780 <pfm_get_os_event_encoding@plt>:
    2780:	f3 0f 1e fa          	endbr64 
    2784:	f2 ff 25 8d c7 00 00 	bnd jmpq *0xc78d(%rip)        # ef18 <pfm_get_os_event_encoding>
    278b:	0f 1f 44 00 00       	nopl   0x0(%rax,%rax,1)

0000000000002790 <putchar@plt>:
    2790:	f3 0f 1e fa          	endbr64 
    2794:	f2 ff 25 85 c7 00 00 	bnd jmpq *0xc785(%rip)        # ef20 <putchar@GLIBC_2.2.5>
    279b:	0f 1f 44 00 00       	nopl   0x0(%rax,%rax,1)

00000000000027a0 <_ZNSt14basic_ofstreamIcSt11char_traitsIcEE5closeEv@plt>:
    27a0:	f3 0f 1e fa          	endbr64 
    27a4:	f2 ff 25 7d c7 00 00 	bnd jmpq *0xc77d(%rip)        # ef28 <_ZNSt14basic_ofstreamIcSt11char_traitsIcEE5closeEv@GLIBCXX_3.4>
    27ab:	0f 1f 44 00 00       	nopl   0x0(%rax,%rax,1)

00000000000027b0 <fprintf@plt>:
    27b0:	f3 0f 1e fa          	endbr64 
    27b4:	f2 ff 25 75 c7 00 00 	bnd jmpq *0xc775(%rip)        # ef30 <fprintf@GLIBC_2.2.5>
    27bb:	0f 1f 44 00 00       	nopl   0x0(%rax,%rax,1)

00000000000027c0 <read@plt>:
    27c0:	f3 0f 1e fa          	endbr64 
    27c4:	f2 ff 25 6d c7 00 00 	bnd jmpq *0xc76d(%rip)        # ef38 <read@GLIBC_2.2.5>
    27cb:	0f 1f 44 00 00       	nopl   0x0(%rax,%rax,1)

00000000000027d0 <__cxa_rethrow@plt>:
    27d0:	f3 0f 1e fa          	endbr64 
    27d4:	f2 ff 25 65 c7 00 00 	bnd jmpq *0xc765(%rip)        # ef40 <__cxa_rethrow@CXXABI_1.3>
    27db:	0f 1f 44 00 00       	nopl   0x0(%rax,%rax,1)

00000000000027e0 <_ZNSt14basic_ofstreamIcSt11char_traitsIcEED1Ev@plt>:
    27e0:	f3 0f 1e fa          	endbr64 
    27e4:	f2 ff 25 5d c7 00 00 	bnd jmpq *0xc75d(%rip)        # ef48 <_ZNSt14basic_ofstreamIcSt11char_traitsIcEED1Ev@GLIBCXX_3.4>
    27eb:	0f 1f 44 00 00       	nopl   0x0(%rax,%rax,1)

00000000000027f0 <_ZNSt8ios_base4InitC1Ev@plt>:
    27f0:	f3 0f 1e fa          	endbr64 
    27f4:	f2 ff 25 55 c7 00 00 	bnd jmpq *0xc755(%rip)        # ef50 <_ZNSt8ios_base4InitC1Ev@GLIBCXX_3.4>
    27fb:	0f 1f 44 00 00       	nopl   0x0(%rax,%rax,1)

0000000000002800 <pfm_strerror@plt>:
    2800:	f3 0f 1e fa          	endbr64 
    2804:	f2 ff 25 4d c7 00 00 	bnd jmpq *0xc74d(%rip)        # ef58 <pfm_strerror>
    280b:	0f 1f 44 00 00       	nopl   0x0(%rax,%rax,1)

0000000000002810 <_ZNSt14basic_ifstreamIcSt11char_traitsIcEEC1ERKNSt7__cxx1112basic_stringIcS1_SaIcEEESt13_Ios_Openmode@plt>:
    2810:	f3 0f 1e fa          	endbr64 
    2814:	f2 ff 25 45 c7 00 00 	bnd jmpq *0xc745(%rip)        # ef60 <_ZNSt14basic_ifstreamIcSt11char_traitsIcEEC1ERKNSt7__cxx1112basic_stringIcS1_SaIcEEESt13_Ios_Openmode@GLIBCXX_3.4.21>
    281b:	0f 1f 44 00 00       	nopl   0x0(%rax,%rax,1)

0000000000002820 <memmove@plt>:
    2820:	f3 0f 1e fa          	endbr64 
    2824:	f2 ff 25 3d c7 00 00 	bnd jmpq *0xc73d(%rip)        # ef68 <memmove@GLIBC_2.2.5>
    282b:	0f 1f 44 00 00       	nopl   0x0(%rax,%rax,1)

0000000000002830 <__cxa_end_catch@plt>:
    2830:	f3 0f 1e fa          	endbr64 
    2834:	f2 ff 25 35 c7 00 00 	bnd jmpq *0xc735(%rip)        # ef70 <__cxa_end_catch@CXXABI_1.3>
    283b:	0f 1f 44 00 00       	nopl   0x0(%rax,%rax,1)

0000000000002840 <realloc@plt>:
    2840:	f3 0f 1e fa          	endbr64 
    2844:	f2 ff 25 2d c7 00 00 	bnd jmpq *0xc72d(%rip)        # ef78 <realloc@GLIBC_2.2.5>
    284b:	0f 1f 44 00 00       	nopl   0x0(%rax,%rax,1)

0000000000002850 <_ZNKSt7__cxx1112basic_stringIcSt11char_traitsIcESaIcEE5rfindEPKcm@plt>:
    2850:	f3 0f 1e fa          	endbr64 
    2854:	f2 ff 25 25 c7 00 00 	bnd jmpq *0xc725(%rip)        # ef80 <_ZNKSt7__cxx1112basic_stringIcSt11char_traitsIcESaIcEE5rfindEPKcm@GLIBCXX_3.4.21>
    285b:	0f 1f 44 00 00       	nopl   0x0(%rax,%rax,1)

0000000000002860 <_Unwind_Resume@plt>:
    2860:	f3 0f 1e fa          	endbr64 
    2864:	f2 ff 25 1d c7 00 00 	bnd jmpq *0xc71d(%rip)        # ef88 <_Unwind_Resume@GCC_3.0>
    286b:	0f 1f 44 00 00       	nopl   0x0(%rax,%rax,1)

0000000000002870 <_ZNSaIcEC1Ev@plt>:
    2870:	f3 0f 1e fa          	endbr64 
    2874:	f2 ff 25 15 c7 00 00 	bnd jmpq *0xc715(%rip)        # ef90 <_ZNSaIcEC1Ev@GLIBCXX_3.4>
    287b:	0f 1f 44 00 00       	nopl   0x0(%rax,%rax,1)

0000000000002880 <_ZNSolsEl@plt>:
    2880:	f3 0f 1e fa          	endbr64 
    2884:	f2 ff 25 0d c7 00 00 	bnd jmpq *0xc70d(%rip)        # ef98 <_ZNSolsEl@GLIBCXX_3.4>
    288b:	0f 1f 44 00 00       	nopl   0x0(%rax,%rax,1)

0000000000002890 <strdup@plt>:
    2890:	f3 0f 1e fa          	endbr64 
    2894:	f2 ff 25 05 c7 00 00 	bnd jmpq *0xc705(%rip)        # efa0 <strdup@GLIBC_2.2.5>
    289b:	0f 1f 44 00 00       	nopl   0x0(%rax,%rax,1)

00000000000028a0 <pfm_initialize@plt>:
    28a0:	f3 0f 1e fa          	endbr64 
    28a4:	f2 ff 25 fd c6 00 00 	bnd jmpq *0xc6fd(%rip)        # efa8 <pfm_initialize>
    28ab:	0f 1f 44 00 00       	nopl   0x0(%rax,%rax,1)

00000000000028b0 <errx@plt>:
    28b0:	f3 0f 1e fa          	endbr64 
    28b4:	f2 ff 25 f5 c6 00 00 	bnd jmpq *0xc6f5(%rip)        # efb0 <errx@GLIBC_2.2.5>
    28bb:	0f 1f 44 00 00       	nopl   0x0(%rax,%rax,1)

00000000000028c0 <_ZNSt14basic_ofstreamIcSt11char_traitsIcEEC1ERKNSt7__cxx1112basic_stringIcS1_SaIcEEESt13_Ios_Openmode@plt>:
    28c0:	f3 0f 1e fa          	endbr64 
    28c4:	f2 ff 25 ed c6 00 00 	bnd jmpq *0xc6ed(%rip)        # efb8 <_ZNSt14basic_ofstreamIcSt11char_traitsIcEEC1ERKNSt7__cxx1112basic_stringIcS1_SaIcEEESt13_Ios_Openmode@GLIBCXX_3.4.21>
    28cb:	0f 1f 44 00 00       	nopl   0x0(%rax,%rax,1)

00000000000028d0 <close@plt>:
    28d0:	f3 0f 1e fa          	endbr64 
    28d4:	f2 ff 25 e5 c6 00 00 	bnd jmpq *0xc6e5(%rip)        # efc0 <close@GLIBC_2.2.5>
    28db:	0f 1f 44 00 00       	nopl   0x0(%rax,%rax,1)

Disassembly of section .text:

00000000000028e0 <_start>:
_start():
    28e0:	f3 0f 1e fa          	endbr64 
    28e4:	31 ed                	xor    %ebp,%ebp
    28e6:	49 89 d1             	mov    %rdx,%r9
    28e9:	5e                   	pop    %rsi
    28ea:	48 89 e2             	mov    %rsp,%rdx
    28ed:	48 83 e4 f0          	and    $0xfffffffffffffff0,%rsp
    28f1:	50                   	push   %rax
    28f2:	54                   	push   %rsp
    28f3:	4c 8d 05 46 73 00 00 	lea    0x7346(%rip),%r8        # 9c40 <__libc_csu_fini>
    28fa:	48 8d 0d cf 72 00 00 	lea    0x72cf(%rip),%rcx        # 9bd0 <__libc_csu_init>
    2901:	48 8d 3d 2e 06 00 00 	lea    0x62e(%rip),%rdi        # 2f36 <main>
    2908:	ff 15 d2 c6 00 00    	callq  *0xc6d2(%rip)        # efe0 <__libc_start_main@GLIBC_2.2.5>
    290e:	f4                   	hlt    
    290f:	90                   	nop

0000000000002910 <deregister_tm_clones>:
deregister_tm_clones():
    2910:	48 8d 3d c1 c7 00 00 	lea    0xc7c1(%rip),%rdi        # f0d8 <__TMC_END__>
    2917:	48 8d 05 ba c7 00 00 	lea    0xc7ba(%rip),%rax        # f0d8 <__TMC_END__>
    291e:	48 39 f8             	cmp    %rdi,%rax
    2921:	74 15                	je     2938 <deregister_tm_clones+0x28>
    2923:	48 8b 05 ae c6 00 00 	mov    0xc6ae(%rip),%rax        # efd8 <_ITM_deregisterTMCloneTable>
    292a:	48 85 c0             	test   %rax,%rax
    292d:	74 09                	je     2938 <deregister_tm_clones+0x28>
    292f:	ff e0                	jmpq   *%rax
    2931:	0f 1f 80 00 00 00 00 	nopl   0x0(%rax)
    2938:	c3                   	retq   
    2939:	0f 1f 80 00 00 00 00 	nopl   0x0(%rax)

0000000000002940 <register_tm_clones>:
register_tm_clones():
    2940:	48 8d 3d 91 c7 00 00 	lea    0xc791(%rip),%rdi        # f0d8 <__TMC_END__>
    2947:	48 8d 35 8a c7 00 00 	lea    0xc78a(%rip),%rsi        # f0d8 <__TMC_END__>
    294e:	48 29 fe             	sub    %rdi,%rsi
    2951:	48 89 f0             	mov    %rsi,%rax
    2954:	48 c1 ee 3f          	shr    $0x3f,%rsi
    2958:	48 c1 f8 03          	sar    $0x3,%rax
    295c:	48 01 c6             	add    %rax,%rsi
    295f:	48 d1 fe             	sar    %rsi
    2962:	74 14                	je     2978 <register_tm_clones+0x38>
    2964:	48 8b 05 85 c6 00 00 	mov    0xc685(%rip),%rax        # eff0 <_ITM_registerTMCloneTable>
    296b:	48 85 c0             	test   %rax,%rax
    296e:	74 08                	je     2978 <register_tm_clones+0x38>
    2970:	ff e0                	jmpq   *%rax
    2972:	66 0f 1f 44 00 00    	nopw   0x0(%rax,%rax,1)
    2978:	c3                   	retq   
    2979:	0f 1f 80 00 00 00 00 	nopl   0x0(%rax)

0000000000002980 <__do_global_dtors_aux>:
__do_global_dtors_aux():
    2980:	f3 0f 1e fa          	endbr64 
    2984:	80 3d 65 c8 00 00 00 	cmpb   $0x0,0xc865(%rip)        # f1f0 <completed.8061>
    298b:	75 2b                	jne    29b8 <__do_global_dtors_aux+0x38>
    298d:	55                   	push   %rbp
    298e:	48 83 3d 32 c6 00 00 	cmpq   $0x0,0xc632(%rip)        # efc8 <__cxa_finalize@GLIBC_2.2.5>
    2995:	00 
    2996:	48 89 e5             	mov    %rsp,%rbp
    2999:	74 0c                	je     29a7 <__do_global_dtors_aux+0x27>
    299b:	48 8b 3d 66 c6 00 00 	mov    0xc666(%rip),%rdi        # f008 <__dso_handle>
    29a2:	e8 d9 fa ff ff       	callq  2480 <__cxa_finalize@plt>
    29a7:	e8 64 ff ff ff       	callq  2910 <deregister_tm_clones>
    29ac:	c6 05 3d c8 00 00 01 	movb   $0x1,0xc83d(%rip)        # f1f0 <completed.8061>
    29b3:	5d                   	pop    %rbp
    29b4:	c3                   	retq   
    29b5:	0f 1f 00             	nopl   (%rax)
    29b8:	c3                   	retq   
    29b9:	0f 1f 80 00 00 00 00 	nopl   0x0(%rax)

00000000000029c0 <frame_dummy>:
frame_dummy():
    29c0:	f3 0f 1e fa          	endbr64 
    29c4:	e9 77 ff ff ff       	jmpq   2940 <register_tm_clones>

00000000000029c9 <_Z10isDistinctPim>:
_Z10isDistinctPim():
/home/donayam/Documents/dove_workspace/vipbench/distinctness/main.cpp:58

#define VIP_CMOV(P,A,B)    CMOV((P), (A), (B))
#define MAX std::numeric_limits<int>::max() 

bool isDistinct(int *array,size_t arr_size)
{
    29c9:	f3 0f 1e fa          	endbr64 
    29cd:	55                   	push   %rbp
    29ce:	48 89 e5             	mov    %rsp,%rbp
    29d1:	48 89 7d d8          	mov    %rdi,-0x28(%rbp)
    29d5:	48 89 75 d0          	mov    %rsi,-0x30(%rbp)
/home/donayam/Documents/dove_workspace/vipbench/distinctness/main.cpp:59
  bool dup = false;
    29d9:	c6 45 e9 00          	movb   $0x0,-0x17(%rbp)
/home/donayam/Documents/dove_workspace/vipbench/distinctness/main.cpp:61

  for (int i=arr_size-1; i >= 0; i--)
    29dd:	48 8b 45 d0          	mov    -0x30(%rbp),%rax
    29e1:	83 e8 01             	sub    $0x1,%eax
    29e4:	89 45 ec             	mov    %eax,-0x14(%rbp)
/home/donayam/Documents/dove_workspace/vipbench/distinctness/main.cpp:61 (discriminator 1)
    29e7:	83 7d ec 00          	cmpl   $0x0,-0x14(%rbp)
    29eb:	0f 88 bb 00 00 00    	js     2aac <_Z10isDistinctPim+0xe3>
/home/donayam/Documents/dove_workspace/vipbench/distinctness/main.cpp:63
  {
    for (int j=0; j < arr_size; j++){
    29f1:	c7 45 f0 00 00 00 00 	movl   $0x0,-0x10(%rbp)
/home/donayam/Documents/dove_workspace/vipbench/distinctness/main.cpp:63 (discriminator 2)
    29f8:	8b 45 f0             	mov    -0x10(%rbp),%eax
    29fb:	48 98                	cltq   
    29fd:	48 39 45 d0          	cmp    %rax,-0x30(%rbp)
    2a01:	0f 86 9c 00 00 00    	jbe    2aa3 <_Z10isDistinctPim+0xda>
/home/donayam/Documents/dove_workspace/vipbench/distinctness/main.cpp:64
	  bool cond = ((array[i] == array[j]) && (i!=j)); 	
    2a07:	8b 45 ec             	mov    -0x14(%rbp),%eax
    2a0a:	48 98                	cltq   
    2a0c:	48 8d 14 85 00 00 00 	lea    0x0(,%rax,4),%rdx
    2a13:	00 
    2a14:	48 8b 45 d8          	mov    -0x28(%rbp),%rax
    2a18:	48 01 d0             	add    %rdx,%rax
    2a1b:	8b 10                	mov    (%rax),%edx
    2a1d:	8b 45 f0             	mov    -0x10(%rbp),%eax
    2a20:	48 98                	cltq   
    2a22:	48 8d 0c 85 00 00 00 	lea    0x0(,%rax,4),%rcx
    2a29:	00 
    2a2a:	48 8b 45 d8          	mov    -0x28(%rbp),%rax
    2a2e:	48 01 c8             	add    %rcx,%rax
    2a31:	8b 00                	mov    (%rax),%eax
    2a33:	39 c2                	cmp    %eax,%edx
    2a35:	75 0f                	jne    2a46 <_Z10isDistinctPim+0x7d>
/home/donayam/Documents/dove_workspace/vipbench/distinctness/main.cpp:64 (discriminator 1)
    2a37:	8b 45 ec             	mov    -0x14(%rbp),%eax
    2a3a:	3b 45 f0             	cmp    -0x10(%rbp),%eax
    2a3d:	74 07                	je     2a46 <_Z10isDistinctPim+0x7d>
/home/donayam/Documents/dove_workspace/vipbench/distinctness/main.cpp:64 (discriminator 3)
    2a3f:	b8 01 00 00 00       	mov    $0x1,%eax
    2a44:	eb 05                	jmp    2a4b <_Z10isDistinctPim+0x82>
/home/donayam/Documents/dove_workspace/vipbench/distinctness/main.cpp:64 (discriminator 4)
    2a46:	b8 00 00 00 00       	mov    $0x0,%eax
/home/donayam/Documents/dove_workspace/vipbench/distinctness/main.cpp:64 (discriminator 6)
    2a4b:	88 45 ea             	mov    %al,-0x16(%rbp)
/home/donayam/Documents/dove_workspace/vipbench/distinctness/main.cpp:65 (discriminator 6)
      dup = VIP_CMOV(cond, array[j], dup);
    2a4e:	0f b6 45 e9          	movzbl -0x17(%rbp),%eax
    2a52:	8b 55 f0             	mov    -0x10(%rbp),%edx
    2a55:	48 63 d2             	movslq %edx,%rdx
    2a58:	48 8d 0c 95 00 00 00 	lea    0x0(,%rdx,4),%rcx
    2a5f:	00 
    2a60:	48 8b 55 d8          	mov    -0x28(%rbp),%rdx
    2a64:	48 01 ca             	add    %rcx,%rdx
    2a67:	8b 12                	mov    (%rdx),%edx
    2a69:	0f b6 4d ea          	movzbl -0x16(%rbp),%ecx
    2a6d:	88 4d eb             	mov    %cl,-0x15(%rbp)
    2a70:	80 65 eb 01          	andb   $0x1,-0x15(%rbp)
    2a74:	89 55 f4             	mov    %edx,-0xc(%rbp)
    2a77:	89 45 f8             	mov    %eax,-0x8(%rbp)
_Z4CMOVbii():
/home/donayam/Documents/dove_workspace/vipbench/distinctness/main.cpp:50 (discriminator 6)
                );
    2a7a:	0f b6 45 eb          	movzbl -0x15(%rbp),%eax
    2a7e:	8b 55 f4             	mov    -0xc(%rbp),%edx
    2a81:	8b 4d f8             	mov    -0x8(%rbp),%ecx
    2a84:	84 c0                	test   %al,%al
    2a86:	0f 44 c1             	cmove  %ecx,%eax
    2a89:	0f 45 c2             	cmovne %edx,%eax
    2a8c:	89 45 fc             	mov    %eax,-0x4(%rbp)
/home/donayam/Documents/dove_workspace/vipbench/distinctness/main.cpp:51 (discriminator 6)
                return result;
    2a8f:	8b 45 fc             	mov    -0x4(%rbp),%eax
_Z10isDistinctPim():
/home/donayam/Documents/dove_workspace/vipbench/distinctness/main.cpp:65 (discriminator 6)
      dup = VIP_CMOV(cond, array[j], dup);
    2a92:	85 c0                	test   %eax,%eax
    2a94:	0f 95 c0             	setne  %al
    2a97:	88 45 e9             	mov    %al,-0x17(%rbp)
/home/donayam/Documents/dove_workspace/vipbench/distinctness/main.cpp:63 (discriminator 6)
    for (int j=0; j < arr_size; j++){
    2a9a:	83 45 f0 01          	addl   $0x1,-0x10(%rbp)
    2a9e:	e9 55 ff ff ff       	jmpq   29f8 <_Z10isDistinctPim+0x2f>
/home/donayam/Documents/dove_workspace/vipbench/distinctness/main.cpp:61 (discriminator 2)
  for (int i=arr_size-1; i >= 0; i--)
    2aa3:	83 6d ec 01          	subl   $0x1,-0x14(%rbp)
    2aa7:	e9 3b ff ff ff       	jmpq   29e7 <_Z10isDistinctPim+0x1e>
/home/donayam/Documents/dove_workspace/vipbench/distinctness/main.cpp:68
	}
  }
  return !dup;
    2aac:	0f b6 45 e9          	movzbl -0x17(%rbp),%eax
    2ab0:	83 f0 01             	xor    $0x1,%eax
/home/donayam/Documents/dove_workspace/vipbench/distinctness/main.cpp:69
}
    2ab3:	5d                   	pop    %rbp
    2ab4:	c3                   	retq   

0000000000002ab5 <_Z9parseArgsB5cxx11iPPc>:
_Z9parseArgsB5cxx11iPPc():
/home/donayam/Documents/dove_workspace/vipbench/distinctness/main.cpp:71

map<string, string> parseArgs(int argc, char **argv) {
    2ab5:	f3 0f 1e fa          	endbr64 
    2ab9:	55                   	push   %rbp
    2aba:	48 89 e5             	mov    %rsp,%rbp
    2abd:	53                   	push   %rbx
    2abe:	48 81 ec 98 00 00 00 	sub    $0x98,%rsp
    2ac5:	48 89 bd 78 ff ff ff 	mov    %rdi,-0x88(%rbp)
    2acc:	89 b5 74 ff ff ff    	mov    %esi,-0x8c(%rbp)
    2ad2:	48 89 95 68 ff ff ff 	mov    %rdx,-0x98(%rbp)
    2ad9:	64 48 8b 04 25 28 00 	mov    %fs:0x28,%rax
    2ae0:	00 00 
    2ae2:	48 89 45 e8          	mov    %rax,-0x18(%rbp)
    2ae6:	31 c0                	xor    %eax,%eax
/home/donayam/Documents/dove_workspace/vipbench/distinctness/main.cpp:72
    map<string, string> args;
    2ae8:	48 8b 85 78 ff ff ff 	mov    -0x88(%rbp),%rax
    2aef:	48 89 c7             	mov    %rax,%rdi
    2af2:	e8 05 0e 00 00       	callq  38fc <_ZNSt3mapINSt7__cxx1112basic_stringIcSt11char_traitsIcESaIcEEES5_St4lessIS5_ESaISt4pairIKS5_S5_EEEC1Ev>
/home/donayam/Documents/dove_workspace/vipbench/distinctness/main.cpp:74

    for (int i = 1; i < argc; ++i) {
    2af7:	c7 45 8c 01 00 00 00 	movl   $0x1,-0x74(%rbp)
/home/donayam/Documents/dove_workspace/vipbench/distinctness/main.cpp:74 (discriminator 1)
    2afe:	8b 45 8c             	mov    -0x74(%rbp),%eax
    2b01:	3b 85 74 ff ff ff    	cmp    -0x8c(%rbp),%eax
    2b07:	0f 8d 42 01 00 00    	jge    2c4f <_Z9parseArgsB5cxx11iPPc+0x19a>
/home/donayam/Documents/dove_workspace/vipbench/distinctness/main.cpp:75
        string arg = argv[i];
    2b0d:	48 8d 45 98          	lea    -0x68(%rbp),%rax
    2b11:	48 89 c7             	mov    %rax,%rdi
    2b14:	e8 57 fd ff ff       	callq  2870 <_ZNSaIcEC1Ev@plt>
    2b19:	8b 45 8c             	mov    -0x74(%rbp),%eax
    2b1c:	48 98                	cltq   
    2b1e:	48 8d 14 c5 00 00 00 	lea    0x0(,%rax,8),%rdx
    2b25:	00 
    2b26:	48 8b 85 68 ff ff ff 	mov    -0x98(%rbp),%rax
    2b2d:	48 01 d0             	add    %rdx,%rax
    2b30:	48 8b 08             	mov    (%rax),%rcx
    2b33:	48 8d 55 98          	lea    -0x68(%rbp),%rdx
    2b37:	48 8d 45 a0          	lea    -0x60(%rbp),%rax
    2b3b:	48 89 ce             	mov    %rcx,%rsi
    2b3e:	48 89 c7             	mov    %rax,%rdi
    2b41:	e8 1a fc ff ff       	callq  2760 <_ZNSt7__cxx1112basic_stringIcSt11char_traitsIcESaIcEEC1EPKcRKS3_@plt>
    2b46:	48 8d 45 98          	lea    -0x68(%rbp),%rax
    2b4a:	48 89 c7             	mov    %rax,%rdi
    2b4d:	e8 7e fb ff ff       	callq  26d0 <_ZNSaIcED1Ev@plt>
/home/donayam/Documents/dove_workspace/vipbench/distinctness/main.cpp:78

        // Check if argument is a named argument starting with "--"
        if (arg.rfind("--", 0) == 0 && i + 1 < argc) {
    2b52:	48 8d 45 a0          	lea    -0x60(%rbp),%rax
    2b56:	ba 00 00 00 00       	mov    $0x0,%edx
    2b5b:	48 8d 35 06 76 00 00 	lea    0x7606(%rip),%rsi        # a168 <_ZL12total_events+0x15c>
    2b62:	48 89 c7             	mov    %rax,%rdi
    2b65:	e8 e6 fc ff ff       	callq  2850 <_ZNKSt7__cxx1112basic_stringIcSt11char_traitsIcESaIcEE5rfindEPKcm@plt>
    2b6a:	48 85 c0             	test   %rax,%rax
    2b6d:	75 15                	jne    2b84 <_Z9parseArgsB5cxx11iPPc+0xcf>
/home/donayam/Documents/dove_workspace/vipbench/distinctness/main.cpp:78 (discriminator 2)
    2b6f:	8b 45 8c             	mov    -0x74(%rbp),%eax
    2b72:	83 c0 01             	add    $0x1,%eax
    2b75:	39 85 74 ff ff ff    	cmp    %eax,-0x8c(%rbp)
    2b7b:	7e 07                	jle    2b84 <_Z9parseArgsB5cxx11iPPc+0xcf>
/home/donayam/Documents/dove_workspace/vipbench/distinctness/main.cpp:78 (discriminator 4)
    2b7d:	b8 01 00 00 00       	mov    $0x1,%eax
    2b82:	eb 05                	jmp    2b89 <_Z9parseArgsB5cxx11iPPc+0xd4>
/home/donayam/Documents/dove_workspace/vipbench/distinctness/main.cpp:78 (discriminator 5)
    2b84:	b8 00 00 00 00       	mov    $0x0,%eax
/home/donayam/Documents/dove_workspace/vipbench/distinctness/main.cpp:78 (discriminator 7)
    2b89:	84 c0                	test   %al,%al
    2b8b:	74 69                	je     2bf6 <_Z9parseArgsB5cxx11iPPc+0x141>
/home/donayam/Documents/dove_workspace/vipbench/distinctness/main.cpp:79
            string key = arg.substr(2); // Remove "--" prefix
    2b8d:	48 8d 45 c0          	lea    -0x40(%rbp),%rax
    2b91:	48 8d 75 a0          	lea    -0x60(%rbp),%rsi
    2b95:	48 c7 c1 ff ff ff ff 	mov    $0xffffffffffffffff,%rcx
    2b9c:	ba 02 00 00 00       	mov    $0x2,%edx
    2ba1:	48 89 c7             	mov    %rax,%rdi
    2ba4:	e8 e7 fa ff ff       	callq  2690 <_ZNKSt7__cxx1112basic_stringIcSt11char_traitsIcESaIcEE6substrEmm@plt>
/home/donayam/Documents/dove_workspace/vipbench/distinctness/main.cpp:80
            args[key] = argv[++i];      // Assign the next element as the value
    2ba9:	83 45 8c 01          	addl   $0x1,-0x74(%rbp)
    2bad:	8b 45 8c             	mov    -0x74(%rbp),%eax
    2bb0:	48 98                	cltq   
    2bb2:	48 8d 14 c5 00 00 00 	lea    0x0(,%rax,8),%rdx
    2bb9:	00 
    2bba:	48 8b 85 68 ff ff ff 	mov    -0x98(%rbp),%rax
    2bc1:	48 01 d0             	add    %rdx,%rax
    2bc4:	48 8b 18             	mov    (%rax),%rbx
    2bc7:	48 8d 55 c0          	lea    -0x40(%rbp),%rdx
    2bcb:	48 8b 85 78 ff ff ff 	mov    -0x88(%rbp),%rax
    2bd2:	48 89 d6             	mov    %rdx,%rsi
    2bd5:	48 89 c7             	mov    %rax,%rdi
    2bd8:	e8 89 0f 00 00       	callq  3b66 <_ZNSt3mapINSt7__cxx1112basic_stringIcSt11char_traitsIcESaIcEEES5_St4lessIS5_ESaISt4pairIKS5_S5_EEEixERS9_>
    2bdd:	48 89 de             	mov    %rbx,%rsi
    2be0:	48 89 c7             	mov    %rax,%rdi
    2be3:	e8 68 fb ff ff       	callq  2750 <_ZNSt7__cxx1112basic_stringIcSt11char_traitsIcESaIcEEaSEPKc@plt>
/home/donayam/Documents/dove_workspace/vipbench/distinctness/main.cpp:79
            string key = arg.substr(2); // Remove "--" prefix
    2be8:	48 8d 45 c0          	lea    -0x40(%rbp),%rax
    2bec:	48 89 c7             	mov    %rax,%rdi
    2bef:	e8 dc f9 ff ff       	callq  25d0 <_ZNSt7__cxx1112basic_stringIcSt11char_traitsIcESaIcEED1Ev@plt>
    2bf4:	eb 44                	jmp    2c3a <_Z9parseArgsB5cxx11iPPc+0x185>
/home/donayam/Documents/dove_workspace/vipbench/distinctness/main.cpp:82
        } else {
            cerr << "Error: Missing value for argument " << arg << endl;
    2bf6:	48 8d 35 73 75 00 00 	lea    0x7573(%rip),%rsi        # a170 <_ZL12total_events+0x164>
    2bfd:	48 8d 3d dc c4 00 00 	lea    0xc4dc(%rip),%rdi        # f0e0 <_ZSt4cerr@@GLIBCXX_3.4>
    2c04:	e8 67 fa ff ff       	callq  2670 <_ZStlsISt11char_traitsIcEERSt13basic_ostreamIcT_ES5_PKc@plt>
    2c09:	48 89 c2             	mov    %rax,%rdx
    2c0c:	48 8d 45 a0          	lea    -0x60(%rbp),%rax
    2c10:	48 89 c6             	mov    %rax,%rsi
    2c13:	48 89 d7             	mov    %rdx,%rdi
    2c16:	e8 15 fa ff ff       	callq  2630 <_ZStlsIcSt11char_traitsIcESaIcEERSt13basic_ostreamIT_T0_ES7_RKNSt7__cxx1112basic_stringIS4_S5_T1_EE@plt>
/home/donayam/Documents/dove_workspace/vipbench/distinctness/main.cpp:82 (discriminator 1)
    2c1b:	48 89 c2             	mov    %rax,%rdx
    2c1e:	48 8b 05 ab c3 00 00 	mov    0xc3ab(%rip),%rax        # efd0 <_ZSt4endlIcSt11char_traitsIcEERSt13basic_ostreamIT_T0_ES6_@GLIBCXX_3.4>
    2c25:	48 89 c6             	mov    %rax,%rsi
    2c28:	48 89 d7             	mov    %rdx,%rdi
    2c2b:	e8 80 fa ff ff       	callq  26b0 <_ZNSolsEPFRSoS_E@plt>
/home/donayam/Documents/dove_workspace/vipbench/distinctness/main.cpp:83
            exit(1);
    2c30:	bf 01 00 00 00       	mov    $0x1,%edi
    2c35:	e8 c6 fa ff ff       	callq  2700 <exit@plt>
/home/donayam/Documents/dove_workspace/vipbench/distinctness/main.cpp:75 (discriminator 2)
        string arg = argv[i];
    2c3a:	48 8d 45 a0          	lea    -0x60(%rbp),%rax
    2c3e:	48 89 c7             	mov    %rax,%rdi
    2c41:	e8 8a f9 ff ff       	callq  25d0 <_ZNSt7__cxx1112basic_stringIcSt11char_traitsIcESaIcEED1Ev@plt>
/home/donayam/Documents/dove_workspace/vipbench/distinctness/main.cpp:74 (discriminator 2)
    for (int i = 1; i < argc; ++i) {
    2c46:	83 45 8c 01          	addl   $0x1,-0x74(%rbp)
    2c4a:	e9 af fe ff ff       	jmpq   2afe <_Z9parseArgsB5cxx11iPPc+0x49>
/home/donayam/Documents/dove_workspace/vipbench/distinctness/main.cpp:87
        }
    }

    if (args.find("output") == args.end()) {
    2c4f:	48 8b 85 78 ff ff ff 	mov    -0x88(%rbp),%rax
    2c56:	48 89 c7             	mov    %rax,%rdi
    2c59:	e8 54 10 00 00       	callq  3cb2 <_ZNSt3mapINSt7__cxx1112basic_stringIcSt11char_traitsIcESaIcEEES5_St4lessIS5_ESaISt4pairIKS5_S5_EEE3endEv>
    2c5e:	48 89 45 98          	mov    %rax,-0x68(%rbp)
    2c62:	48 8d 45 8b          	lea    -0x75(%rbp),%rax
    2c66:	48 89 c7             	mov    %rax,%rdi
    2c69:	e8 02 fc ff ff       	callq  2870 <_ZNSaIcEC1Ev@plt>
    2c6e:	48 8d 55 8b          	lea    -0x75(%rbp),%rdx
    2c72:	48 8d 45 c0          	lea    -0x40(%rbp),%rax
    2c76:	48 8d 35 16 75 00 00 	lea    0x7516(%rip),%rsi        # a193 <_ZL12total_events+0x187>
    2c7d:	48 89 c7             	mov    %rax,%rdi
    2c80:	e8 db fa ff ff       	callq  2760 <_ZNSt7__cxx1112basic_stringIcSt11char_traitsIcESaIcEEC1EPKcRKS3_@plt>
/home/donayam/Documents/dove_workspace/vipbench/distinctness/main.cpp:87 (discriminator 2)
    2c85:	48 8d 55 c0          	lea    -0x40(%rbp),%rdx
    2c89:	48 8b 85 78 ff ff ff 	mov    -0x88(%rbp),%rax
    2c90:	48 89 d6             	mov    %rdx,%rsi
    2c93:	48 89 c7             	mov    %rax,%rdi
    2c96:	e8 ed 0f 00 00       	callq  3c88 <_ZNSt3mapINSt7__cxx1112basic_stringIcSt11char_traitsIcESaIcEEES5_St4lessIS5_ESaISt4pairIKS5_S5_EEE4findERS9_>
    2c9b:	48 89 45 90          	mov    %rax,-0x70(%rbp)
    2c9f:	48 8d 55 98          	lea    -0x68(%rbp),%rdx
    2ca3:	48 8d 45 90          	lea    -0x70(%rbp),%rax
    2ca7:	48 89 d6             	mov    %rdx,%rsi
    2caa:	48 89 c7             	mov    %rax,%rdi
    2cad:	e8 1e 10 00 00       	callq  3cd0 <_ZSteqRKSt17_Rb_tree_iteratorISt4pairIKNSt7__cxx1112basic_stringIcSt11char_traitsIcESaIcEEES6_EESB_>
    2cb2:	89 c3                	mov    %eax,%ebx
    2cb4:	48 8d 45 c0          	lea    -0x40(%rbp),%rax
    2cb8:	48 89 c7             	mov    %rax,%rdi
    2cbb:	e8 10 f9 ff ff       	callq  25d0 <_ZNSt7__cxx1112basic_stringIcSt11char_traitsIcESaIcEED1Ev@plt>
    2cc0:	48 8d 45 8b          	lea    -0x75(%rbp),%rax
    2cc4:	48 89 c7             	mov    %rax,%rdi
    2cc7:	e8 04 fa ff ff       	callq  26d0 <_ZNSaIcED1Ev@plt>
    2ccc:	84 db                	test   %bl,%bl
    2cce:	0f 84 a7 00 00 00    	je     2d7b <_Z9parseArgsB5cxx11iPPc+0x2c6>
/home/donayam/Documents/dove_workspace/vipbench/distinctness/main.cpp:88
        cerr << "Error: Missing required argument --output\n";
    2cd4:	48 8d 35 c5 74 00 00 	lea    0x74c5(%rip),%rsi        # a1a0 <_ZL12total_events+0x194>
    2cdb:	48 8d 3d fe c3 00 00 	lea    0xc3fe(%rip),%rdi        # f0e0 <_ZSt4cerr@@GLIBCXX_3.4>
    2ce2:	e8 89 f9 ff ff       	callq  2670 <_ZStlsISt11char_traitsIcEERSt13basic_ostreamIcT_ES5_PKc@plt>
/home/donayam/Documents/dove_workspace/vipbench/distinctness/main.cpp:89
        exit(1);
    2ce7:	bf 01 00 00 00       	mov    $0x1,%edi
    2cec:	e8 0f fa ff ff       	callq  2700 <exit@plt>
    2cf1:	f3 0f 1e fa          	endbr64 
    2cf5:	48 89 c3             	mov    %rax,%rbx
    2cf8:	48 8d 45 98          	lea    -0x68(%rbp),%rax
    2cfc:	48 89 c7             	mov    %rax,%rdi
    2cff:	e8 cc f9 ff ff       	callq  26d0 <_ZNSaIcED1Ev@plt>
    2d04:	eb 5b                	jmp    2d61 <_Z9parseArgsB5cxx11iPPc+0x2ac>
    2d06:	f3 0f 1e fa          	endbr64 
    2d0a:	48 89 c3             	mov    %rax,%rbx
/home/donayam/Documents/dove_workspace/vipbench/distinctness/main.cpp:79
            string key = arg.substr(2); // Remove "--" prefix
    2d0d:	48 8d 45 c0          	lea    -0x40(%rbp),%rax
    2d11:	48 89 c7             	mov    %rax,%rdi
    2d14:	e8 b7 f8 ff ff       	callq  25d0 <_ZNSt7__cxx1112basic_stringIcSt11char_traitsIcESaIcEED1Ev@plt>
    2d19:	eb 07                	jmp    2d22 <_Z9parseArgsB5cxx11iPPc+0x26d>
    2d1b:	f3 0f 1e fa          	endbr64 
    2d1f:	48 89 c3             	mov    %rax,%rbx
/home/donayam/Documents/dove_workspace/vipbench/distinctness/main.cpp:75
        string arg = argv[i];
    2d22:	48 8d 45 a0          	lea    -0x60(%rbp),%rax
    2d26:	48 89 c7             	mov    %rax,%rdi
    2d29:	e8 a2 f8 ff ff       	callq  25d0 <_ZNSt7__cxx1112basic_stringIcSt11char_traitsIcESaIcEED1Ev@plt>
    2d2e:	eb 31                	jmp    2d61 <_Z9parseArgsB5cxx11iPPc+0x2ac>
    2d30:	f3 0f 1e fa          	endbr64 
    2d34:	48 89 c3             	mov    %rax,%rbx
/home/donayam/Documents/dove_workspace/vipbench/distinctness/main.cpp:87
    if (args.find("output") == args.end()) {
    2d37:	48 8d 45 c0          	lea    -0x40(%rbp),%rax
    2d3b:	48 89 c7             	mov    %rax,%rdi
    2d3e:	e8 8d f8 ff ff       	callq  25d0 <_ZNSt7__cxx1112basic_stringIcSt11char_traitsIcESaIcEED1Ev@plt>
    2d43:	eb 07                	jmp    2d4c <_Z9parseArgsB5cxx11iPPc+0x297>
    2d45:	f3 0f 1e fa          	endbr64 
    2d49:	48 89 c3             	mov    %rax,%rbx
/home/donayam/Documents/dove_workspace/vipbench/distinctness/main.cpp:87 (discriminator 1)
    2d4c:	48 8d 45 8b          	lea    -0x75(%rbp),%rax
    2d50:	48 89 c7             	mov    %rax,%rdi
    2d53:	e8 78 f9 ff ff       	callq  26d0 <_ZNSaIcED1Ev@plt>
    2d58:	eb 07                	jmp    2d61 <_Z9parseArgsB5cxx11iPPc+0x2ac>
    2d5a:	f3 0f 1e fa          	endbr64 
    2d5e:	48 89 c3             	mov    %rax,%rbx
    2d61:	48 8b 85 78 ff ff ff 	mov    -0x88(%rbp),%rax
    2d68:	48 89 c7             	mov    %rax,%rdi
    2d6b:	e8 ac 0b 00 00       	callq  391c <_ZNSt3mapINSt7__cxx1112basic_stringIcSt11char_traitsIcESaIcEEES5_St4lessIS5_ESaISt4pairIKS5_S5_EEED1Ev>
    2d70:	48 89 d8             	mov    %rbx,%rax
    2d73:	48 89 c7             	mov    %rax,%rdi
    2d76:	e8 e5 fa ff ff       	callq  2860 <_Unwind_Resume@plt>
/home/donayam/Documents/dove_workspace/vipbench/distinctness/main.cpp:92
    }

    return args;
    2d7b:	90                   	nop
/home/donayam/Documents/dove_workspace/vipbench/distinctness/main.cpp:93
}
    2d7c:	48 8b 45 e8          	mov    -0x18(%rbp),%rax
    2d80:	64 48 33 04 25 28 00 	xor    %fs:0x28,%rax
    2d87:	00 00 
    2d89:	74 05                	je     2d90 <_Z9parseArgsB5cxx11iPPc+0x2db>
    2d8b:	e8 50 f9 ff ff       	callq  26e0 <__stack_chk_fail@plt>
    2d90:	48 8b 85 78 ff ff ff 	mov    -0x88(%rbp),%rax
    2d97:	48 81 c4 98 00 00 00 	add    $0x98,%rsp
    2d9e:	5b                   	pop    %rbx
    2d9f:	5d                   	pop    %rbp
    2da0:	c3                   	retq   

0000000000002da1 <_Z11runDistinctPiiPPKcRSt14basic_ofstreamIcSt11char_traitsIcEE>:
_Z11runDistinctPiiPPKcRSt14basic_ofstreamIcSt11char_traitsIcEE():
/home/donayam/Documents/dove_workspace/vipbench/distinctness/main.cpp:95

void runDistinct(int* data, int data_len,  const char *events[], ofstream &file) {
    2da1:	f3 0f 1e fa          	endbr64 
    2da5:	55                   	push   %rbp
    2da6:	48 89 e5             	mov    %rsp,%rbp
    2da9:	48 83 ec 60          	sub    $0x60,%rsp
    2dad:	48 89 7d b8          	mov    %rdi,-0x48(%rbp)
    2db1:	89 75 b4             	mov    %esi,-0x4c(%rbp)
    2db4:	48 89 55 a8          	mov    %rdx,-0x58(%rbp)
    2db8:	48 89 4d a0          	mov    %rcx,-0x60(%rbp)
    2dbc:	64 48 8b 04 25 28 00 	mov    %fs:0x28,%rax
    2dc3:	00 00 
    2dc5:	48 89 45 f8          	mov    %rax,-0x8(%rbp)
    2dc9:	31 c0                	xor    %eax,%eax
/home/donayam/Documents/dove_workspace/vipbench/distinctness/main.cpp:97

    ctx = init_profile(0, events);
    2dcb:	48 8b 45 a8          	mov    -0x58(%rbp),%rax
    2dcf:	48 89 c6             	mov    %rax,%rsi
    2dd2:	bf 00 00 00 00       	mov    $0x0,%edi
    2dd7:	e8 18 69 00 00       	callq  96f4 <init_profile>
    2ddc:	48 89 05 15 c4 00 00 	mov    %rax,0xc415(%rip)        # f1f8 <ctx>
/home/donayam/Documents/dove_workspace/vipbench/distinctness/main.cpp:98
    start_profile(ctx);
    2de3:	48 8b 05 0e c4 00 00 	mov    0xc40e(%rip),%rax        # f1f8 <ctx>
    2dea:	48 89 c7             	mov    %rax,%rdi
    2ded:	e8 52 6b 00 00       	callq  9944 <start_profile>
/home/donayam/Documents/dove_workspace/vipbench/distinctness/main.cpp:100

    auto start = chrono::high_resolution_clock::now();
    2df2:	e8 c9 f6 ff ff       	callq  24c0 <_ZNSt6chrono3_V212system_clock3nowEv@plt>
    2df7:	48 89 45 c8          	mov    %rax,-0x38(%rbp)
/home/donayam/Documents/dove_workspace/vipbench/distinctness/main.cpp:103
    // Encrypt
    
    bool ret = isDistinct(data,data_len);
    2dfb:	8b 45 b4             	mov    -0x4c(%rbp),%eax
    2dfe:	48 63 d0             	movslq %eax,%rdx
    2e01:	48 8b 45 b8          	mov    -0x48(%rbp),%rax
    2e05:	48 89 d6             	mov    %rdx,%rsi
    2e08:	48 89 c7             	mov    %rax,%rdi
    2e0b:	e8 b9 fb ff ff       	callq  29c9 <_Z10isDistinctPim>
    2e10:	88 45 c3             	mov    %al,-0x3d(%rbp)
/home/donayam/Documents/dove_workspace/vipbench/distinctness/main.cpp:104
    auto end = chrono::high_resolution_clock::now();
    2e13:	e8 a8 f6 ff ff       	callq  24c0 <_ZNSt6chrono3_V212system_clock3nowEv@plt>
    2e18:	48 89 45 d0          	mov    %rax,-0x30(%rbp)
/home/donayam/Documents/dove_workspace/vipbench/distinctness/main.cpp:106

    pref_result_t *res = stop_profile2(ctx);
    2e1c:	48 8b 05 d5 c3 00 00 	mov    0xc3d5(%rip),%rax        # f1f8 <ctx>
    2e23:	48 89 c7             	mov    %rax,%rdi
    2e26:	e8 5a 6b 00 00       	callq  9985 <stop_profile2>
    2e2b:	48 89 45 e8          	mov    %rax,-0x18(%rbp)
/home/donayam/Documents/dove_workspace/vipbench/distinctness/main.cpp:109

    // Log profiling results
    for (int i = 0; i < ctx->num_fds; i++) {
    2e2f:	c7 45 c4 00 00 00 00 	movl   $0x0,-0x3c(%rbp)
/home/donayam/Documents/dove_workspace/vipbench/distinctness/main.cpp:109 (discriminator 1)
    2e36:	48 8b 05 bb c3 00 00 	mov    0xc3bb(%rip),%rax        # f1f8 <ctx>
    2e3d:	8b 40 08             	mov    0x8(%rax),%eax
    2e40:	39 45 c4             	cmp    %eax,-0x3c(%rbp)
    2e43:	7d 6f                	jge    2eb4 <_Z11runDistinctPiiPPKcRSt14basic_ofstreamIcSt11char_traitsIcEE+0x113>
/home/donayam/Documents/dove_workspace/vipbench/distinctness/main.cpp:110
        file << res[i].name << ":" << res[i].result << "\n";
    2e45:	48 8b 45 a0          	mov    -0x60(%rbp),%rax
    2e49:	8b 55 c4             	mov    -0x3c(%rbp),%edx
    2e4c:	48 63 d2             	movslq %edx,%rdx
    2e4f:	48 89 d1             	mov    %rdx,%rcx
    2e52:	48 c1 e1 04          	shl    $0x4,%rcx
    2e56:	48 8b 55 e8          	mov    -0x18(%rbp),%rdx
    2e5a:	48 01 ca             	add    %rcx,%rdx
    2e5d:	48 8b 12             	mov    (%rdx),%rdx
    2e60:	48 89 d6             	mov    %rdx,%rsi
    2e63:	48 89 c7             	mov    %rax,%rdi
    2e66:	e8 05 f8 ff ff       	callq  2670 <_ZStlsISt11char_traitsIcEERSt13basic_ostreamIcT_ES5_PKc@plt>
    2e6b:	48 8d 35 59 73 00 00 	lea    0x7359(%rip),%rsi        # a1cb <_ZL12total_events+0x1bf>
    2e72:	48 89 c7             	mov    %rax,%rdi
    2e75:	e8 f6 f7 ff ff       	callq  2670 <_ZStlsISt11char_traitsIcEERSt13basic_ostreamIcT_ES5_PKc@plt>
    2e7a:	48 89 c2             	mov    %rax,%rdx
    2e7d:	8b 45 c4             	mov    -0x3c(%rbp),%eax
    2e80:	48 98                	cltq   
    2e82:	48 c1 e0 04          	shl    $0x4,%rax
    2e86:	48 89 c1             	mov    %rax,%rcx
    2e89:	48 8b 45 e8          	mov    -0x18(%rbp),%rax
    2e8d:	48 01 c8             	add    %rcx,%rax
    2e90:	48 8b 40 08          	mov    0x8(%rax),%rax
    2e94:	48 89 c6             	mov    %rax,%rsi
    2e97:	48 89 d7             	mov    %rdx,%rdi
    2e9a:	e8 61 f6 ff ff       	callq  2500 <_ZNSolsEm@plt>
    2e9f:	48 8d 35 27 73 00 00 	lea    0x7327(%rip),%rsi        # a1cd <_ZL12total_events+0x1c1>
    2ea6:	48 89 c7             	mov    %rax,%rdi
    2ea9:	e8 c2 f7 ff ff       	callq  2670 <_ZStlsISt11char_traitsIcEERSt13basic_ostreamIcT_ES5_PKc@plt>
/home/donayam/Documents/dove_workspace/vipbench/distinctness/main.cpp:109
    for (int i = 0; i < ctx->num_fds; i++) {
    2eae:	83 45 c4 01          	addl   $0x1,-0x3c(%rbp)
    2eb2:	eb 82                	jmp    2e36 <_Z11runDistinctPiiPPKcRSt14basic_ofstreamIcSt11char_traitsIcEE+0x95>
/home/donayam/Documents/dove_workspace/vipbench/distinctness/main.cpp:113
    }

    auto duration = chrono::duration_cast<chrono::nanoseconds>(end - start).count();
    2eb4:	48 8d 55 c8          	lea    -0x38(%rbp),%rdx
    2eb8:	48 8d 45 d0          	lea    -0x30(%rbp),%rax
    2ebc:	48 89 d6             	mov    %rdx,%rsi
    2ebf:	48 89 c7             	mov    %rax,%rdi
    2ec2:	e8 92 0a 00 00       	callq  3959 <_ZNSt6chronomiINS_3_V212system_clockENS_8durationIlSt5ratioILl1ELl1000000000EEEES6_EENSt11common_typeIJT0_T1_EE4typeERKNS_10time_pointIT_S8_EERKNSC_ISD_S9_EE>
    2ec7:	48 89 45 d8          	mov    %rax,-0x28(%rbp)
    2ecb:	48 8d 45 d8          	lea    -0x28(%rbp),%rax
    2ecf:	48 89 c7             	mov    %rax,%rdi
    2ed2:	e8 64 0a 00 00       	callq  393b <_ZNSt6chrono13duration_castINS_8durationIlSt5ratioILl1ELl1000000000EEEElS3_EENSt9enable_ifIXsrNS_13__is_durationIT_EE5valueES7_E4typeERKNS1_IT0_T1_EE>
    2ed7:	48 89 45 e0          	mov    %rax,-0x20(%rbp)
    2edb:	48 8d 45 e0          	lea    -0x20(%rbp),%rax
    2edf:	48 89 c7             	mov    %rax,%rdi
    2ee2:	e8 f5 08 00 00       	callq  37dc <_ZNKSt6chrono8durationIlSt5ratioILl1ELl1000000000EEE5countEv>
    2ee7:	48 89 45 f0          	mov    %rax,-0x10(%rbp)
/home/donayam/Documents/dove_workspace/vipbench/distinctness/main.cpp:114
    file << "encryption_time:" << duration << "\n";
    2eeb:	48 8b 45 a0          	mov    -0x60(%rbp),%rax
    2eef:	48 8d 35 d9 72 00 00 	lea    0x72d9(%rip),%rsi        # a1cf <_ZL12total_events+0x1c3>
    2ef6:	48 89 c7             	mov    %rax,%rdi
    2ef9:	e8 72 f7 ff ff       	callq  2670 <_ZStlsISt11char_traitsIcEERSt13basic_ostreamIcT_ES5_PKc@plt>
    2efe:	48 89 c2             	mov    %rax,%rdx
    2f01:	48 8b 45 f0          	mov    -0x10(%rbp),%rax
    2f05:	48 89 c6             	mov    %rax,%rsi
    2f08:	48 89 d7             	mov    %rdx,%rdi
    2f0b:	e8 70 f9 ff ff       	callq  2880 <_ZNSolsEl@plt>
    2f10:	48 8d 35 b6 72 00 00 	lea    0x72b6(%rip),%rsi        # a1cd <_ZL12total_events+0x1c1>
    2f17:	48 89 c7             	mov    %rax,%rdi
    2f1a:	e8 51 f7 ff ff       	callq  2670 <_ZStlsISt11char_traitsIcEERSt13basic_ostreamIcT_ES5_PKc@plt>
/home/donayam/Documents/dove_workspace/vipbench/distinctness/main.cpp:116

}
    2f1f:	90                   	nop
    2f20:	48 8b 45 f8          	mov    -0x8(%rbp),%rax
    2f24:	64 48 33 04 25 28 00 	xor    %fs:0x28,%rax
    2f2b:	00 00 
    2f2d:	74 05                	je     2f34 <_Z11runDistinctPiiPPKcRSt14basic_ofstreamIcSt11char_traitsIcEE+0x193>
    2f2f:	e8 ac f7 ff ff       	callq  26e0 <__stack_chk_fail@plt>
    2f34:	c9                   	leaveq 
    2f35:	c3                   	retq   

0000000000002f36 <main>:
main():
/home/donayam/Documents/dove_workspace/vipbench/distinctness/main.cpp:119


int main(int argc, char **argv) {
    2f36:	f3 0f 1e fa          	endbr64 
    2f3a:	55                   	push   %rbp
    2f3b:	48 89 e5             	mov    %rsp,%rbp
    2f3e:	41 56                	push   %r14
    2f40:	41 55                	push   %r13
    2f42:	41 54                	push   %r12
    2f44:	53                   	push   %rbx
    2f45:	48 81 ec 10 05 00 00 	sub    $0x510,%rsp
    2f4c:	89 bd dc fa ff ff    	mov    %edi,-0x524(%rbp)
    2f52:	48 89 b5 d0 fa ff ff 	mov    %rsi,-0x530(%rbp)
    2f59:	64 48 8b 04 25 28 00 	mov    %fs:0x28,%rax
    2f60:	00 00 
    2f62:	48 89 45 d8          	mov    %rax,-0x28(%rbp)
    2f66:	31 c0                	xor    %eax,%eax
/home/donayam/Documents/dove_workspace/vipbench/distinctness/main.cpp:120
    int ret = pfm_initialize();
    2f68:	e8 33 f9 ff ff       	callq  28a0 <pfm_initialize@plt>
    2f6d:	89 85 f4 fa ff ff    	mov    %eax,-0x50c(%rbp)
/home/donayam/Documents/dove_workspace/vipbench/distinctness/main.cpp:121
    if (ret != PFM_SUCCESS) {
    2f73:	83 bd f4 fa ff ff 00 	cmpl   $0x0,-0x50c(%rbp)
    2f7a:	74 4d                	je     2fc9 <main+0x93>
/home/donayam/Documents/dove_workspace/vipbench/distinctness/main.cpp:122
        cerr << "Cannot initialize library: " << pfm_strerror(ret) << endl;
    2f7c:	48 8d 35 5d 72 00 00 	lea    0x725d(%rip),%rsi        # a1e0 <_ZL12total_events+0x1d4>
    2f83:	48 8d 3d 56 c1 00 00 	lea    0xc156(%rip),%rdi        # f0e0 <_ZSt4cerr@@GLIBCXX_3.4>
    2f8a:	e8 e1 f6 ff ff       	callq  2670 <_ZStlsISt11char_traitsIcEERSt13basic_ostreamIcT_ES5_PKc@plt>
    2f8f:	48 89 c3             	mov    %rax,%rbx
    2f92:	8b 85 f4 fa ff ff    	mov    -0x50c(%rbp),%eax
    2f98:	89 c7                	mov    %eax,%edi
    2f9a:	e8 61 f8 ff ff       	callq  2800 <pfm_strerror@plt>
    2f9f:	48 89 c6             	mov    %rax,%rsi
    2fa2:	48 89 df             	mov    %rbx,%rdi
    2fa5:	e8 c6 f6 ff ff       	callq  2670 <_ZStlsISt11char_traitsIcEERSt13basic_ostreamIcT_ES5_PKc@plt>
    2faa:	48 89 c2             	mov    %rax,%rdx
    2fad:	48 8b 05 1c c0 00 00 	mov    0xc01c(%rip),%rax        # efd0 <_ZSt4endlIcSt11char_traitsIcEERSt13basic_ostreamIT_T0_ES6_@GLIBCXX_3.4>
    2fb4:	48 89 c6             	mov    %rax,%rsi
    2fb7:	48 89 d7             	mov    %rdx,%rdi
    2fba:	e8 f1 f6 ff ff       	callq  26b0 <_ZNSolsEPFRSoS_E@plt>
/home/donayam/Documents/dove_workspace/vipbench/distinctness/main.cpp:123
        return 1;
    2fbf:	bb 01 00 00 00       	mov    $0x1,%ebx
    2fc4:	e9 3a 06 00 00       	jmpq   3603 <main+0x6cd>
/home/donayam/Documents/dove_workspace/vipbench/distinctness/main.cpp:126
    }

    if (argc < 5) {
    2fc9:	83 bd dc fa ff ff 04 	cmpl   $0x4,-0x524(%rbp)
    2fd0:	0f 8f a8 00 00 00    	jg     307e <main+0x148>
/home/donayam/Documents/dove_workspace/vipbench/distinctness/main.cpp:127
        cerr << "Error: Arguments less than 4.\n";
    2fd6:	48 8d 35 23 72 00 00 	lea    0x7223(%rip),%rsi        # a200 <_ZL12total_events+0x1f4>
    2fdd:	48 8d 3d fc c0 00 00 	lea    0xc0fc(%rip),%rdi        # f0e0 <_ZSt4cerr@@GLIBCXX_3.4>
    2fe4:	e8 87 f6 ff ff       	callq  2670 <_ZStlsISt11char_traitsIcEERSt13basic_ostreamIcT_ES5_PKc@plt>
/home/donayam/Documents/dove_workspace/vipbench/distinctness/main.cpp:136
                << "  --output <output_file>            Path to the output file where results will be saved.\n"
                << "  --input <encrypted_file>          Path to the input encrypted file (e.g., ./path_to_directory/encrypted_1).\n"
                << "\n"
                << "Description:\n"
                << "  This command runs the application with specified keys and files. The public and private key files are used\n"
                << "  to decrypt or process the input encrypted file, and the result is saved in the output file.\n";
    2fe9:	48 8d 35 30 72 00 00 	lea    0x7230(%rip),%rsi        # a220 <_ZL12total_events+0x214>
    2ff0:	48 8d 3d e9 c0 00 00 	lea    0xc0e9(%rip),%rdi        # f0e0 <_ZSt4cerr@@GLIBCXX_3.4>
    2ff7:	e8 74 f6 ff ff       	callq  2670 <_ZStlsISt11char_traitsIcEERSt13basic_ostreamIcT_ES5_PKc@plt>
    2ffc:	48 8d 35 ca 71 00 00 	lea    0x71ca(%rip),%rsi        # a1cd <_ZL12total_events+0x1c1>
    3003:	48 89 c7             	mov    %rax,%rdi
    3006:	e8 65 f6 ff ff       	callq  2670 <_ZStlsISt11char_traitsIcEERSt13basic_ostreamIcT_ES5_PKc@plt>
    300b:	48 8d 35 4d 72 00 00 	lea    0x724d(%rip),%rsi        # a25f <_ZL12total_events+0x253>
    3012:	48 89 c7             	mov    %rax,%rdi
    3015:	e8 56 f6 ff ff       	callq  2670 <_ZStlsISt11char_traitsIcEERSt13basic_ostreamIcT_ES5_PKc@plt>
    301a:	48 8d 35 4f 72 00 00 	lea    0x724f(%rip),%rsi        # a270 <_ZL12total_events+0x264>
    3021:	48 89 c7             	mov    %rax,%rdi
    3024:	e8 47 f6 ff ff       	callq  2670 <_ZStlsISt11char_traitsIcEERSt13basic_ostreamIcT_ES5_PKc@plt>
    3029:	48 8d 35 a0 72 00 00 	lea    0x72a0(%rip),%rsi        # a2d0 <_ZL12total_events+0x2c4>
    3030:	48 89 c7             	mov    %rax,%rdi
    3033:	e8 38 f6 ff ff       	callq  2670 <_ZStlsISt11char_traitsIcEERSt13basic_ostreamIcT_ES5_PKc@plt>
    3038:	48 8d 35 8e 71 00 00 	lea    0x718e(%rip),%rsi        # a1cd <_ZL12total_events+0x1c1>
    303f:	48 89 c7             	mov    %rax,%rdi
    3042:	e8 29 f6 ff ff       	callq  2670 <_ZStlsISt11char_traitsIcEERSt13basic_ostreamIcT_ES5_PKc@plt>
    3047:	48 8d 35 f1 72 00 00 	lea    0x72f1(%rip),%rsi        # a33f <_ZL12total_events+0x333>
    304e:	48 89 c7             	mov    %rax,%rdi
    3051:	e8 1a f6 ff ff       	callq  2670 <_ZStlsISt11char_traitsIcEERSt13basic_ostreamIcT_ES5_PKc@plt>
    3056:	48 8d 35 f3 72 00 00 	lea    0x72f3(%rip),%rsi        # a350 <_ZL12total_events+0x344>
    305d:	48 89 c7             	mov    %rax,%rdi
    3060:	e8 0b f6 ff ff       	callq  2670 <_ZStlsISt11char_traitsIcEERSt13basic_ostreamIcT_ES5_PKc@plt>
    3065:	48 8d 35 54 73 00 00 	lea    0x7354(%rip),%rsi        # a3c0 <_ZL12total_events+0x3b4>
    306c:	48 89 c7             	mov    %rax,%rdi
    306f:	e8 fc f5 ff ff       	callq  2670 <_ZStlsISt11char_traitsIcEERSt13basic_ostreamIcT_ES5_PKc@plt>
/home/donayam/Documents/dove_workspace/vipbench/distinctness/main.cpp:138

        return 1;
    3074:	bb 01 00 00 00       	mov    $0x1,%ebx
    3079:	e9 85 05 00 00       	jmpq   3603 <main+0x6cd>
/home/donayam/Documents/dove_workspace/vipbench/distinctness/main.cpp:141
    }

    map<string, string> args = parseArgs(argc, argv);
    307e:	48 8d 85 40 fb ff ff 	lea    -0x4c0(%rbp),%rax
    3085:	48 8b 95 d0 fa ff ff 	mov    -0x530(%rbp),%rdx
    308c:	8b 8d dc fa ff ff    	mov    -0x524(%rbp),%ecx
    3092:	89 ce                	mov    %ecx,%esi
    3094:	48 89 c7             	mov    %rax,%rdi
    3097:	e8 19 fa ff ff       	callq  2ab5 <_Z9parseArgsB5cxx11iPPc>
/home/donayam/Documents/dove_workspace/vipbench/distinctness/main.cpp:142
    string input_file_name   = args["input"];       //argv[3];
    309c:	48 8d 85 20 fb ff ff 	lea    -0x4e0(%rbp),%rax
    30a3:	48 89 c7             	mov    %rax,%rdi
    30a6:	e8 c5 f7 ff ff       	callq  2870 <_ZNSaIcEC1Ev@plt>
    30ab:	48 8d 95 20 fb ff ff 	lea    -0x4e0(%rbp),%rdx
    30b2:	48 8d 85 d0 fd ff ff 	lea    -0x230(%rbp),%rax
    30b9:	48 8d 35 5f 73 00 00 	lea    0x735f(%rip),%rsi        # a41f <_ZL12total_events+0x413>
    30c0:	48 89 c7             	mov    %rax,%rdi
    30c3:	e8 98 f6 ff ff       	callq  2760 <_ZNSt7__cxx1112basic_stringIcSt11char_traitsIcESaIcEEC1EPKcRKS3_@plt>
/home/donayam/Documents/dove_workspace/vipbench/distinctness/main.cpp:142 (discriminator 1)
    30c8:	48 8d 95 d0 fd ff ff 	lea    -0x230(%rbp),%rdx
    30cf:	48 8d 85 40 fb ff ff 	lea    -0x4c0(%rbp),%rax
    30d6:	48 89 d6             	mov    %rdx,%rsi
    30d9:	48 89 c7             	mov    %rax,%rdi
    30dc:	e8 71 0c 00 00       	callq  3d52 <_ZNSt3mapINSt7__cxx1112basic_stringIcSt11char_traitsIcESaIcEEES5_St4lessIS5_ESaISt4pairIKS5_S5_EEEixEOS5_>
    30e1:	48 89 c2             	mov    %rax,%rdx
    30e4:	48 8d 85 70 fb ff ff 	lea    -0x490(%rbp),%rax
    30eb:	48 89 d6             	mov    %rdx,%rsi
    30ee:	48 89 c7             	mov    %rax,%rdi
    30f1:	e8 7a f4 ff ff       	callq  2570 <_ZNSt7__cxx1112basic_stringIcSt11char_traitsIcESaIcEEC1ERKS4_@plt>
    30f6:	48 8d 85 d0 fd ff ff 	lea    -0x230(%rbp),%rax
    30fd:	48 89 c7             	mov    %rax,%rdi
    3100:	e8 cb f4 ff ff       	callq  25d0 <_ZNSt7__cxx1112basic_stringIcSt11char_traitsIcESaIcEED1Ev@plt>
    3105:	48 8d 85 20 fb ff ff 	lea    -0x4e0(%rbp),%rax
    310c:	48 89 c7             	mov    %rax,%rdi
    310f:	e8 bc f5 ff ff       	callq  26d0 <_ZNSaIcED1Ev@plt>
/home/donayam/Documents/dove_workspace/vipbench/distinctness/main.cpp:143
    string output_file_name  = args["output"];      //argv[4];
    3114:	48 8d 85 20 fb ff ff 	lea    -0x4e0(%rbp),%rax
    311b:	48 89 c7             	mov    %rax,%rdi
    311e:	e8 4d f7 ff ff       	callq  2870 <_ZNSaIcEC1Ev@plt>
    3123:	48 8d 95 20 fb ff ff 	lea    -0x4e0(%rbp),%rdx
    312a:	48 8d 85 d0 fd ff ff 	lea    -0x230(%rbp),%rax
    3131:	48 8d 35 5b 70 00 00 	lea    0x705b(%rip),%rsi        # a193 <_ZL12total_events+0x187>
    3138:	48 89 c7             	mov    %rax,%rdi
    313b:	e8 20 f6 ff ff       	callq  2760 <_ZNSt7__cxx1112basic_stringIcSt11char_traitsIcESaIcEEC1EPKcRKS3_@plt>
/home/donayam/Documents/dove_workspace/vipbench/distinctness/main.cpp:143 (discriminator 1)
    3140:	48 8d 95 d0 fd ff ff 	lea    -0x230(%rbp),%rdx
    3147:	48 8d 85 40 fb ff ff 	lea    -0x4c0(%rbp),%rax
    314e:	48 89 d6             	mov    %rdx,%rsi
    3151:	48 89 c7             	mov    %rax,%rdi
    3154:	e8 f9 0b 00 00       	callq  3d52 <_ZNSt3mapINSt7__cxx1112basic_stringIcSt11char_traitsIcESaIcEEES5_St4lessIS5_ESaISt4pairIKS5_S5_EEEixEOS5_>
    3159:	48 89 c2             	mov    %rax,%rdx
    315c:	48 8d 85 90 fb ff ff 	lea    -0x470(%rbp),%rax
    3163:	48 89 d6             	mov    %rdx,%rsi
    3166:	48 89 c7             	mov    %rax,%rdi
    3169:	e8 02 f4 ff ff       	callq  2570 <_ZNSt7__cxx1112basic_stringIcSt11char_traitsIcESaIcEEC1ERKS4_@plt>
    316e:	48 8d 85 d0 fd ff ff 	lea    -0x230(%rbp),%rax
    3175:	48 89 c7             	mov    %rax,%rdi
    3178:	e8 53 f4 ff ff       	callq  25d0 <_ZNSt7__cxx1112basic_stringIcSt11char_traitsIcESaIcEED1Ev@plt>
    317d:	48 8d 85 20 fb ff ff 	lea    -0x4e0(%rbp),%rax
    3184:	48 89 c7             	mov    %rax,%rdi
    3187:	e8 44 f5 ff ff       	callq  26d0 <_ZNSaIcED1Ev@plt>
/home/donayam/Documents/dove_workspace/vipbench/distinctness/main.cpp:149




     //Create a dynamic array to hold the values
	vector<int> numbers;    
    318c:	48 8d 85 00 fb ff ff 	lea    -0x500(%rbp),%rax
    3193:	48 89 c7             	mov    %rax,%rdi
    3196:	e8 11 09 00 00       	callq  3aac <_ZNSt6vectorIiSaIiEEC1Ev>
/home/donayam/Documents/dove_workspace/vipbench/distinctness/main.cpp:150
	ifstream in(input_file_name,ios::in);	
    319b:	48 8d 8d 70 fb ff ff 	lea    -0x490(%rbp),%rcx
    31a2:	48 8d 85 d0 fd ff ff 	lea    -0x230(%rbp),%rax
    31a9:	ba 08 00 00 00       	mov    $0x8,%edx
    31ae:	48 89 ce             	mov    %rcx,%rsi
    31b1:	48 89 c7             	mov    %rax,%rdi
    31b4:	e8 57 f6 ff ff       	callq  2810 <_ZNSt14basic_ifstreamIcSt11char_traitsIcEEC1ERKNSt7__cxx1112basic_stringIcS1_SaIcEEESt13_Ios_Openmode@plt>
/home/donayam/Documents/dove_workspace/vipbench/distinctness/main.cpp:152
    int number;  //Variable to hold each number as it is read
    while (in >> number) {
    31b9:	48 8d 95 e8 fa ff ff 	lea    -0x518(%rbp),%rdx
    31c0:	48 8d 85 d0 fd ff ff 	lea    -0x230(%rbp),%rax
    31c7:	48 89 d6             	mov    %rdx,%rsi
    31ca:	48 89 c7             	mov    %rax,%rdi
    31cd:	e8 ee f3 ff ff       	callq  25c0 <_ZNSirsERi@plt>
    31d2:	48 8b 10             	mov    (%rax),%rdx
    31d5:	48 83 ea 18          	sub    $0x18,%rdx
    31d9:	48 8b 12             	mov    (%rdx),%rdx
    31dc:	48 01 d0             	add    %rdx,%rax
    31df:	48 89 c7             	mov    %rax,%rdi
    31e2:	e8 39 f5 ff ff       	callq  2720 <_ZNKSt9basic_iosIcSt11char_traitsIcEEcvbEv@plt>
/home/donayam/Documents/dove_workspace/vipbench/distinctness/main.cpp:152 (discriminator 1)
    31e7:	84 c0                	test   %al,%al
    31e9:	74 1b                	je     3206 <main+0x2d0>
/home/donayam/Documents/dove_workspace/vipbench/distinctness/main.cpp:153
		numbers.push_back(number);
    31eb:	48 8d 95 e8 fa ff ff 	lea    -0x518(%rbp),%rdx
    31f2:	48 8d 85 00 fb ff ff 	lea    -0x500(%rbp),%rax
    31f9:	48 89 d6             	mov    %rdx,%rsi
    31fc:	48 89 c7             	mov    %rax,%rdi
    31ff:	e8 60 0d 00 00       	callq  3f64 <_ZNSt6vectorIiSaIiEE9push_backERKi>
/home/donayam/Documents/dove_workspace/vipbench/distinctness/main.cpp:152
    while (in >> number) {
    3204:	eb b3                	jmp    31b9 <main+0x283>
/home/donayam/Documents/dove_workspace/vipbench/distinctness/main.cpp:155
	}
    in.close();
    3206:	48 8d 85 d0 fd ff ff 	lea    -0x230(%rbp),%rax
    320d:	48 89 c7             	mov    %rax,%rdi
    3210:	e8 db f2 ff ff       	callq  24f0 <_ZNSt14basic_ifstreamIcSt11char_traitsIcEE5closeEv@plt>
/home/donayam/Documents/dove_workspace/vipbench/distinctness/main.cpp:158

    
    ofstream file(output_file_name, ios::out | ios::trunc);
    3215:	be 20 00 00 00       	mov    $0x20,%esi
    321a:	bf 10 00 00 00       	mov    $0x10,%edi
    321f:	e8 18 06 00 00       	callq  383c <_ZStorSt13_Ios_OpenmodeS_>
    3224:	89 c2                	mov    %eax,%edx
    3226:	48 8d 8d 90 fb ff ff 	lea    -0x470(%rbp),%rcx
    322d:	48 8d 85 d0 fb ff ff 	lea    -0x430(%rbp),%rax
    3234:	48 89 ce             	mov    %rcx,%rsi
    3237:	48 89 c7             	mov    %rax,%rdi
    323a:	e8 81 f6 ff ff       	callq  28c0 <_ZNSt14basic_ofstreamIcSt11char_traitsIcEEC1ERKNSt7__cxx1112basic_stringIcS1_SaIcEEESt13_Ios_Openmode@plt>
/home/donayam/Documents/dove_workspace/vipbench/distinctness/main.cpp:159
    if (!file) {
    323f:	48 8d 85 d0 fb ff ff 	lea    -0x430(%rbp),%rax
    3246:	48 05 f8 00 00 00    	add    $0xf8,%rax
    324c:	48 89 c7             	mov    %rax,%rdi
    324f:	e8 2c f3 ff ff       	callq  2580 <_ZNKSt9basic_iosIcSt11char_traitsIcEEntEv@plt>
    3254:	84 c0                	test   %al,%al
    3256:	74 47                	je     329f <main+0x369>
/home/donayam/Documents/dove_workspace/vipbench/distinctness/main.cpp:160
        cerr << "Error opening output file: " << output_file_name << endl;
    3258:	48 8d 35 c6 71 00 00 	lea    0x71c6(%rip),%rsi        # a425 <_ZL12total_events+0x419>
    325f:	48 8d 3d 7a be 00 00 	lea    0xbe7a(%rip),%rdi        # f0e0 <_ZSt4cerr@@GLIBCXX_3.4>
    3266:	e8 05 f4 ff ff       	callq  2670 <_ZStlsISt11char_traitsIcEERSt13basic_ostreamIcT_ES5_PKc@plt>
    326b:	48 89 c2             	mov    %rax,%rdx
    326e:	48 8d 85 90 fb ff ff 	lea    -0x470(%rbp),%rax
    3275:	48 89 c6             	mov    %rax,%rsi
    3278:	48 89 d7             	mov    %rdx,%rdi
    327b:	e8 b0 f3 ff ff       	callq  2630 <_ZStlsIcSt11char_traitsIcESaIcEERSt13basic_ostreamIT_T0_ES7_RKNSt7__cxx1112basic_stringIS4_S5_T1_EE@plt>
/home/donayam/Documents/dove_workspace/vipbench/distinctness/main.cpp:160 (discriminator 1)
    3280:	48 89 c2             	mov    %rax,%rdx
    3283:	48 8b 05 46 bd 00 00 	mov    0xbd46(%rip),%rax        # efd0 <_ZSt4endlIcSt11char_traitsIcEERSt13basic_ostreamIT_T0_ES6_@GLIBCXX_3.4>
    328a:	48 89 c6             	mov    %rax,%rsi
    328d:	48 89 d7             	mov    %rdx,%rdi
    3290:	e8 1b f4 ff ff       	callq  26b0 <_ZNSolsEPFRSoS_E@plt>
/home/donayam/Documents/dove_workspace/vipbench/distinctness/main.cpp:161
        return 1;
    3295:	bb 01 00 00 00       	mov    $0x1,%ebx
    329a:	e9 0a 03 00 00       	jmpq   35a9 <main+0x673>
/home/donayam/Documents/dove_workspace/vipbench/distinctness/main.cpp:163
    }
    int size = total_events;
    329f:	c7 85 f8 fa ff ff 15 	movl   $0x15,-0x508(%rbp)
    32a6:	00 00 00 
/home/donayam/Documents/dove_workspace/vipbench/distinctness/main.cpp:167


    // Encrypt with profiling for each group of 3 events
    for (int i = 0; i < size - 2; i += 3) {
    32a9:	c7 85 ec fa ff ff 00 	movl   $0x0,-0x514(%rbp)
    32b0:	00 00 00 
/home/donayam/Documents/dove_workspace/vipbench/distinctness/main.cpp:167 (discriminator 1)
    32b3:	8b 85 f8 fa ff ff    	mov    -0x508(%rbp),%eax
    32b9:	83 e8 02             	sub    $0x2,%eax
    32bc:	39 85 ec fa ff ff    	cmp    %eax,-0x514(%rbp)
    32c2:	0f 8d 3b 01 00 00    	jge    3403 <main+0x4cd>
/home/donayam/Documents/dove_workspace/vipbench/distinctness/main.cpp:168
        vector<const char*> events = {gen_events__[i], gen_events__[i+1], gen_events__[i+2], NULL};
    32c8:	8b 85 ec fa ff ff    	mov    -0x514(%rbp),%eax
    32ce:	48 98                	cltq   
    32d0:	48 8d 14 c5 00 00 00 	lea    0x0(,%rax,8),%rdx
    32d7:	00 
    32d8:	48 8d 05 41 bd 00 00 	lea    0xbd41(%rip),%rax        # f020 <gen_events__>
    32df:	48 8b 04 02          	mov    (%rdx,%rax,1),%rax
    32e3:	48 89 85 b0 fb ff ff 	mov    %rax,-0x450(%rbp)
    32ea:	8b 85 ec fa ff ff    	mov    -0x514(%rbp),%eax
    32f0:	83 c0 01             	add    $0x1,%eax
    32f3:	48 98                	cltq   
    32f5:	48 8d 14 c5 00 00 00 	lea    0x0(,%rax,8),%rdx
    32fc:	00 
    32fd:	48 8d 05 1c bd 00 00 	lea    0xbd1c(%rip),%rax        # f020 <gen_events__>
    3304:	48 8b 04 02          	mov    (%rdx,%rax,1),%rax
    3308:	48 89 85 b8 fb ff ff 	mov    %rax,-0x448(%rbp)
    330f:	8b 85 ec fa ff ff    	mov    -0x514(%rbp),%eax
    3315:	83 c0 02             	add    $0x2,%eax
    3318:	48 98                	cltq   
    331a:	48 8d 14 c5 00 00 00 	lea    0x0(,%rax,8),%rdx
    3321:	00 
    3322:	48 8d 05 f7 bc 00 00 	lea    0xbcf7(%rip),%rax        # f020 <gen_events__>
    3329:	48 8b 04 02          	mov    (%rdx,%rax,1),%rax
    332d:	48 89 85 c0 fb ff ff 	mov    %rax,-0x440(%rbp)
    3334:	48 c7 85 c8 fb ff ff 	movq   $0x0,-0x438(%rbp)
    333b:	00 00 00 00 
    333f:	48 8d 85 b0 fb ff ff 	lea    -0x450(%rbp),%rax
    3346:	49 89 c4             	mov    %rax,%r12
    3349:	41 bd 04 00 00 00    	mov    $0x4,%r13d
    334f:	48 8d 85 e7 fa ff ff 	lea    -0x519(%rbp),%rax
    3356:	48 89 c7             	mov    %rax,%rdi
    3359:	e8 86 0c 00 00       	callq  3fe4 <_ZNSaIPKcEC1Ev>
    335e:	48 8d 95 e7 fa ff ff 	lea    -0x519(%rbp),%rdx
    3365:	4c 89 e6             	mov    %r12,%rsi
    3368:	4c 89 ef             	mov    %r13,%rdi
    336b:	4c 89 e1             	mov    %r12,%rcx
    336e:	4c 89 eb             	mov    %r13,%rbx
    3371:	48 89 df             	mov    %rbx,%rdi
    3374:	48 8d 85 20 fb ff ff 	lea    -0x4e0(%rbp),%rax
    337b:	48 89 d1             	mov    %rdx,%rcx
    337e:	48 89 fa             	mov    %rdi,%rdx
    3381:	48 89 c7             	mov    %rax,%rdi
    3384:	e8 9b 0c 00 00       	callq  4024 <_ZNSt6vectorIPKcSaIS1_EEC1ESt16initializer_listIS1_ERKS2_>
    3389:	48 8d 85 e7 fa ff ff 	lea    -0x519(%rbp),%rax
    3390:	48 89 c7             	mov    %rax,%rdi
    3393:	e8 6c 0c 00 00       	callq  4004 <_ZNSaIPKcED1Ev>
/home/donayam/Documents/dove_workspace/vipbench/distinctness/main.cpp:169
        runDistinct(&numbers[0], numbers.size(), events.data(), file);
    3398:	48 8d 85 20 fb ff ff 	lea    -0x4e0(%rbp),%rax
    339f:	48 89 c7             	mov    %rax,%rdi
    33a2:	e8 c5 0d 00 00       	callq  416c <_ZNSt6vectorIPKcSaIS1_EE4dataEv>
    33a7:	48 89 c3             	mov    %rax,%rbx
    33aa:	48 8d 85 00 fb ff ff 	lea    -0x500(%rbp),%rax
    33b1:	48 89 c7             	mov    %rax,%rdi
    33b4:	e8 8b 0d 00 00       	callq  4144 <_ZNKSt6vectorIiSaIiEE4sizeEv>
    33b9:	41 89 c6             	mov    %eax,%r14d
    33bc:	48 8d 85 00 fb ff ff 	lea    -0x500(%rbp),%rax
    33c3:	be 00 00 00 00       	mov    $0x0,%esi
    33c8:	48 89 c7             	mov    %rax,%rdi
    33cb:	e8 50 0d 00 00       	callq  4120 <_ZNSt6vectorIiSaIiEEixEm>
    33d0:	48 89 c7             	mov    %rax,%rdi
    33d3:	48 8d 85 d0 fb ff ff 	lea    -0x430(%rbp),%rax
    33da:	48 89 c1             	mov    %rax,%rcx
    33dd:	48 89 da             	mov    %rbx,%rdx
    33e0:	44 89 f6             	mov    %r14d,%esi
    33e3:	e8 b9 f9 ff ff       	callq  2da1 <_Z11runDistinctPiiPPKcRSt14basic_ofstreamIcSt11char_traitsIcEE>
/home/donayam/Documents/dove_workspace/vipbench/distinctness/main.cpp:168 (discriminator 2)
        vector<const char*> events = {gen_events__[i], gen_events__[i+1], gen_events__[i+2], NULL};
    33e8:	48 8d 85 20 fb ff ff 	lea    -0x4e0(%rbp),%rax
    33ef:	48 89 c7             	mov    %rax,%rdi
    33f2:	e8 e1 0c 00 00       	callq  40d8 <_ZNSt6vectorIPKcSaIS1_EED1Ev>
/home/donayam/Documents/dove_workspace/vipbench/distinctness/main.cpp:167 (discriminator 2)
    for (int i = 0; i < size - 2; i += 3) {
    33f7:	83 85 ec fa ff ff 03 	addl   $0x3,-0x514(%rbp)
    33fe:	e9 b0 fe ff ff       	jmpq   32b3 <main+0x37d>
/home/donayam/Documents/dove_workspace/vipbench/distinctness/main.cpp:173
    }

    // Handle remaining events if not multiple of 3
    if (size % 3 != 0) {
    3403:	8b 8d f8 fa ff ff    	mov    -0x508(%rbp),%ecx
    3409:	48 63 c1             	movslq %ecx,%rax
    340c:	48 69 c0 56 55 55 55 	imul   $0x55555556,%rax,%rax
    3413:	48 c1 e8 20          	shr    $0x20,%rax
    3417:	48 89 c2             	mov    %rax,%rdx
    341a:	89 c8                	mov    %ecx,%eax
    341c:	c1 f8 1f             	sar    $0x1f,%eax
    341f:	89 d6                	mov    %edx,%esi
    3421:	29 c6                	sub    %eax,%esi
    3423:	89 f0                	mov    %esi,%eax
    3425:	89 c2                	mov    %eax,%edx
    3427:	01 d2                	add    %edx,%edx
    3429:	01 c2                	add    %eax,%edx
    342b:	89 c8                	mov    %ecx,%eax
    342d:	29 d0                	sub    %edx,%eax
    342f:	85 c0                	test   %eax,%eax
    3431:	0f 84 5e 01 00 00    	je     3595 <main+0x65f>
/home/donayam/Documents/dove_workspace/vipbench/distinctness/main.cpp:174
        int remaining = size % 3;
    3437:	8b 95 f8 fa ff ff    	mov    -0x508(%rbp),%edx
    343d:	48 63 c2             	movslq %edx,%rax
    3440:	48 69 c0 56 55 55 55 	imul   $0x55555556,%rax,%rax
    3447:	48 c1 e8 20          	shr    $0x20,%rax
    344b:	48 89 c1             	mov    %rax,%rcx
    344e:	89 d0                	mov    %edx,%eax
    3450:	c1 f8 1f             	sar    $0x1f,%eax
    3453:	29 c1                	sub    %eax,%ecx
    3455:	89 c8                	mov    %ecx,%eax
    3457:	01 c0                	add    %eax,%eax
    3459:	01 c8                	add    %ecx,%eax
    345b:	29 c2                	sub    %eax,%edx
    345d:	89 d0                	mov    %edx,%eax
    345f:	89 85 fc fa ff ff    	mov    %eax,-0x504(%rbp)
/home/donayam/Documents/dove_workspace/vipbench/distinctness/main.cpp:175
        vector<const char*> events(remaining + 1);
    3465:	48 8d 85 e7 fa ff ff 	lea    -0x519(%rbp),%rax
    346c:	48 89 c7             	mov    %rax,%rdi
    346f:	e8 70 0b 00 00       	callq  3fe4 <_ZNSaIPKcEC1Ev>
    3474:	8b 85 fc fa ff ff    	mov    -0x504(%rbp),%eax
    347a:	83 c0 01             	add    $0x1,%eax
    347d:	48 63 c8             	movslq %eax,%rcx
    3480:	48 8d 95 e7 fa ff ff 	lea    -0x519(%rbp),%rdx
    3487:	48 8d 85 20 fb ff ff 	lea    -0x4e0(%rbp),%rax
    348e:	48 89 ce             	mov    %rcx,%rsi
    3491:	48 89 c7             	mov    %rax,%rdi
    3494:	e8 fb 0c 00 00       	callq  4194 <_ZNSt6vectorIPKcSaIS1_EEC1EmRKS2_>
    3499:	48 8d 85 e7 fa ff ff 	lea    -0x519(%rbp),%rax
    34a0:	48 89 c7             	mov    %rax,%rdi
    34a3:	e8 5c 0b 00 00       	callq  4004 <_ZNSaIPKcED1Ev>
/home/donayam/Documents/dove_workspace/vipbench/distinctness/main.cpp:176
        for (int i = 0; i < remaining; ++i) {
    34a8:	c7 85 f0 fa ff ff 00 	movl   $0x0,-0x510(%rbp)
    34af:	00 00 00 
/home/donayam/Documents/dove_workspace/vipbench/distinctness/main.cpp:176 (discriminator 3)
    34b2:	8b 85 f0 fa ff ff    	mov    -0x510(%rbp),%eax
    34b8:	3b 85 fc fa ff ff    	cmp    -0x504(%rbp),%eax
    34be:	7d 54                	jge    3514 <main+0x5de>
/home/donayam/Documents/dove_workspace/vipbench/distinctness/main.cpp:177 (discriminator 2)
            events[i] = gen_events__[size - remaining + i];
    34c0:	8b 85 f8 fa ff ff    	mov    -0x508(%rbp),%eax
    34c6:	2b 85 fc fa ff ff    	sub    -0x504(%rbp),%eax
    34cc:	89 c2                	mov    %eax,%edx
    34ce:	8b 85 f0 fa ff ff    	mov    -0x510(%rbp),%eax
    34d4:	8d 1c 02             	lea    (%rdx,%rax,1),%ebx
    34d7:	8b 85 f0 fa ff ff    	mov    -0x510(%rbp),%eax
    34dd:	48 63 d0             	movslq %eax,%rdx
    34e0:	48 8d 85 20 fb ff ff 	lea    -0x4e0(%rbp),%rax
    34e7:	48 89 d6             	mov    %rdx,%rsi
    34ea:	48 89 c7             	mov    %rax,%rdi
    34ed:	e8 22 0d 00 00       	callq  4214 <_ZNSt6vectorIPKcSaIS1_EEixEm>
    34f2:	48 63 d3             	movslq %ebx,%rdx
    34f5:	48 8d 0c d5 00 00 00 	lea    0x0(,%rdx,8),%rcx
    34fc:	00 
    34fd:	48 8d 15 1c bb 00 00 	lea    0xbb1c(%rip),%rdx        # f020 <gen_events__>
    3504:	48 8b 14 11          	mov    (%rcx,%rdx,1),%rdx
    3508:	48 89 10             	mov    %rdx,(%rax)
/home/donayam/Documents/dove_workspace/vipbench/distinctness/main.cpp:176 (discriminator 2)
        for (int i = 0; i < remaining; ++i) {
    350b:	83 85 f0 fa ff ff 01 	addl   $0x1,-0x510(%rbp)
    3512:	eb 9e                	jmp    34b2 <main+0x57c>
/home/donayam/Documents/dove_workspace/vipbench/distinctness/main.cpp:179
        }
        events[remaining] = NULL;
    3514:	8b 85 fc fa ff ff    	mov    -0x504(%rbp),%eax
    351a:	48 63 d0             	movslq %eax,%rdx
    351d:	48 8d 85 20 fb ff ff 	lea    -0x4e0(%rbp),%rax
    3524:	48 89 d6             	mov    %rdx,%rsi
    3527:	48 89 c7             	mov    %rax,%rdi
    352a:	e8 e5 0c 00 00       	callq  4214 <_ZNSt6vectorIPKcSaIS1_EEixEm>
    352f:	48 c7 00 00 00 00 00 	movq   $0x0,(%rax)
/home/donayam/Documents/dove_workspace/vipbench/distinctness/main.cpp:180
        runDistinct(&numbers[0], numbers.size(), events.data(), file);
    3536:	48 8d 85 20 fb ff ff 	lea    -0x4e0(%rbp),%rax
    353d:	48 89 c7             	mov    %rax,%rdi
    3540:	e8 27 0c 00 00       	callq  416c <_ZNSt6vectorIPKcSaIS1_EE4dataEv>
    3545:	48 89 c3             	mov    %rax,%rbx
    3548:	48 8d 85 00 fb ff ff 	lea    -0x500(%rbp),%rax
    354f:	48 89 c7             	mov    %rax,%rdi
    3552:	e8 ed 0b 00 00       	callq  4144 <_ZNKSt6vectorIiSaIiEE4sizeEv>
    3557:	41 89 c4             	mov    %eax,%r12d
    355a:	48 8d 85 00 fb ff ff 	lea    -0x500(%rbp),%rax
    3561:	be 00 00 00 00       	mov    $0x0,%esi
    3566:	48 89 c7             	mov    %rax,%rdi
    3569:	e8 b2 0b 00 00       	callq  4120 <_ZNSt6vectorIiSaIiEEixEm>
    356e:	48 89 c7             	mov    %rax,%rdi
    3571:	48 8d 85 d0 fb ff ff 	lea    -0x430(%rbp),%rax
    3578:	48 89 c1             	mov    %rax,%rcx
    357b:	48 89 da             	mov    %rbx,%rdx
    357e:	44 89 e6             	mov    %r12d,%esi
    3581:	e8 1b f8 ff ff       	callq  2da1 <_Z11runDistinctPiiPPKcRSt14basic_ofstreamIcSt11char_traitsIcEE>
/home/donayam/Documents/dove_workspace/vipbench/distinctness/main.cpp:175
        vector<const char*> events(remaining + 1);
    3586:	48 8d 85 20 fb ff ff 	lea    -0x4e0(%rbp),%rax
    358d:	48 89 c7             	mov    %rax,%rdi
    3590:	e8 43 0b 00 00       	callq  40d8 <_ZNSt6vectorIPKcSaIS1_EED1Ev>
/home/donayam/Documents/dove_workspace/vipbench/distinctness/main.cpp:185
    }

    

    file.close();
    3595:	48 8d 85 d0 fb ff ff 	lea    -0x430(%rbp),%rax
    359c:	48 89 c7             	mov    %rax,%rdi
    359f:	e8 fc f1 ff ff       	callq  27a0 <_ZNSt14basic_ofstreamIcSt11char_traitsIcEE5closeEv@plt>
/home/donayam/Documents/dove_workspace/vipbench/distinctness/main.cpp:187

    return 0;
    35a4:	bb 00 00 00 00       	mov    $0x0,%ebx
/home/donayam/Documents/dove_workspace/vipbench/distinctness/main.cpp:158
    ofstream file(output_file_name, ios::out | ios::trunc);
    35a9:	48 8d 85 d0 fb ff ff 	lea    -0x430(%rbp),%rax
    35b0:	48 89 c7             	mov    %rax,%rdi
    35b3:	e8 28 f2 ff ff       	callq  27e0 <_ZNSt14basic_ofstreamIcSt11char_traitsIcEED1Ev@plt>
/home/donayam/Documents/dove_workspace/vipbench/distinctness/main.cpp:150
	ifstream in(input_file_name,ios::in);	
    35b8:	48 8d 85 d0 fd ff ff 	lea    -0x230(%rbp),%rax
    35bf:	48 89 c7             	mov    %rax,%rdi
    35c2:	e8 49 ef ff ff       	callq  2510 <_ZNSt14basic_ifstreamIcSt11char_traitsIcEED1Ev@plt>
/home/donayam/Documents/dove_workspace/vipbench/distinctness/main.cpp:149
	vector<int> numbers;    
    35c7:	48 8d 85 00 fb ff ff 	lea    -0x500(%rbp),%rax
    35ce:	48 89 c7             	mov    %rax,%rdi
    35d1:	e8 46 09 00 00       	callq  3f1c <_ZNSt6vectorIiSaIiEED1Ev>
/home/donayam/Documents/dove_workspace/vipbench/distinctness/main.cpp:143
    string output_file_name  = args["output"];      //argv[4];
    35d6:	48 8d 85 90 fb ff ff 	lea    -0x470(%rbp),%rax
    35dd:	48 89 c7             	mov    %rax,%rdi
    35e0:	e8 eb ef ff ff       	callq  25d0 <_ZNSt7__cxx1112basic_stringIcSt11char_traitsIcESaIcEED1Ev@plt>
/home/donayam/Documents/dove_workspace/vipbench/distinctness/main.cpp:142
    string input_file_name   = args["input"];       //argv[3];
    35e5:	48 8d 85 70 fb ff ff 	lea    -0x490(%rbp),%rax
    35ec:	48 89 c7             	mov    %rax,%rdi
    35ef:	e8 dc ef ff ff       	callq  25d0 <_ZNSt7__cxx1112basic_stringIcSt11char_traitsIcESaIcEED1Ev@plt>
/home/donayam/Documents/dove_workspace/vipbench/distinctness/main.cpp:141
    map<string, string> args = parseArgs(argc, argv);
    35f4:	48 8d 85 40 fb ff ff 	lea    -0x4c0(%rbp),%rax
    35fb:	48 89 c7             	mov    %rax,%rdi
    35fe:	e8 19 03 00 00       	callq  391c <_ZNSt3mapINSt7__cxx1112basic_stringIcSt11char_traitsIcESaIcEEES5_St4lessIS5_ESaISt4pairIKS5_S5_EEED1Ev>
    3603:	89 d8                	mov    %ebx,%eax
/home/donayam/Documents/dove_workspace/vipbench/distinctness/main.cpp:188 (discriminator 1)
}
    3605:	48 8b 4d d8          	mov    -0x28(%rbp),%rcx
    3609:	64 48 33 0c 25 28 00 	xor    %fs:0x28,%rcx
    3610:	00 00 
    3612:	0f 84 4e 01 00 00    	je     3766 <main+0x830>
    3618:	e9 44 01 00 00       	jmpq   3761 <main+0x82b>
    361d:	f3 0f 1e fa          	endbr64 
    3621:	48 89 c3             	mov    %rax,%rbx
    3624:	48 8d 85 d0 fd ff ff 	lea    -0x230(%rbp),%rax
    362b:	48 89 c7             	mov    %rax,%rdi
    362e:	e8 9d ef ff ff       	callq  25d0 <_ZNSt7__cxx1112basic_stringIcSt11char_traitsIcESaIcEED1Ev@plt>
    3633:	eb 07                	jmp    363c <main+0x706>
    3635:	f3 0f 1e fa          	endbr64 
    3639:	48 89 c3             	mov    %rax,%rbx
    363c:	48 8d 85 20 fb ff ff 	lea    -0x4e0(%rbp),%rax
    3643:	48 89 c7             	mov    %rax,%rdi
    3646:	e8 85 f0 ff ff       	callq  26d0 <_ZNSaIcED1Ev@plt>
    364b:	e9 f7 00 00 00       	jmpq   3747 <main+0x811>
    3650:	f3 0f 1e fa          	endbr64 
    3654:	48 89 c3             	mov    %rax,%rbx
    3657:	48 8d 85 d0 fd ff ff 	lea    -0x230(%rbp),%rax
    365e:	48 89 c7             	mov    %rax,%rdi
    3661:	e8 6a ef ff ff       	callq  25d0 <_ZNSt7__cxx1112basic_stringIcSt11char_traitsIcESaIcEED1Ev@plt>
    3666:	eb 07                	jmp    366f <main+0x739>
    3668:	f3 0f 1e fa          	endbr64 
    366c:	48 89 c3             	mov    %rax,%rbx
    366f:	48 8d 85 20 fb ff ff 	lea    -0x4e0(%rbp),%rax
    3676:	48 89 c7             	mov    %rax,%rdi
    3679:	e8 52 f0 ff ff       	callq  26d0 <_ZNSaIcED1Ev@plt>
    367e:	e9 b5 00 00 00       	jmpq   3738 <main+0x802>
    3683:	f3 0f 1e fa          	endbr64 
    3687:	48 89 c3             	mov    %rax,%rbx
    368a:	48 8d 85 e7 fa ff ff 	lea    -0x519(%rbp),%rax
    3691:	48 89 c7             	mov    %rax,%rdi
    3694:	e8 6b 09 00 00       	callq  4004 <_ZNSaIPKcED1Ev>
    3699:	eb 4f                	jmp    36ea <main+0x7b4>
    369b:	f3 0f 1e fa          	endbr64 
    369f:	48 89 c3             	mov    %rax,%rbx
/home/donayam/Documents/dove_workspace/vipbench/distinctness/main.cpp:168
        vector<const char*> events = {gen_events__[i], gen_events__[i+1], gen_events__[i+2], NULL};
    36a2:	48 8d 85 20 fb ff ff 	lea    -0x4e0(%rbp),%rax
    36a9:	48 89 c7             	mov    %rax,%rdi
    36ac:	e8 27 0a 00 00       	callq  40d8 <_ZNSt6vectorIPKcSaIS1_EED1Ev>
    36b1:	eb 37                	jmp    36ea <main+0x7b4>
    36b3:	f3 0f 1e fa          	endbr64 
    36b7:	48 89 c3             	mov    %rax,%rbx
    36ba:	48 8d 85 e7 fa ff ff 	lea    -0x519(%rbp),%rax
    36c1:	48 89 c7             	mov    %rax,%rdi
    36c4:	e8 3b 09 00 00       	callq  4004 <_ZNSaIPKcED1Ev>
    36c9:	eb 1f                	jmp    36ea <main+0x7b4>
    36cb:	f3 0f 1e fa          	endbr64 
    36cf:	48 89 c3             	mov    %rax,%rbx
/home/donayam/Documents/dove_workspace/vipbench/distinctness/main.cpp:175
        vector<const char*> events(remaining + 1);
    36d2:	48 8d 85 20 fb ff ff 	lea    -0x4e0(%rbp),%rax
    36d9:	48 89 c7             	mov    %rax,%rdi
    36dc:	e8 f7 09 00 00       	callq  40d8 <_ZNSt6vectorIPKcSaIS1_EED1Ev>
    36e1:	eb 07                	jmp    36ea <main+0x7b4>
    36e3:	f3 0f 1e fa          	endbr64 
    36e7:	48 89 c3             	mov    %rax,%rbx
/home/donayam/Documents/dove_workspace/vipbench/distinctness/main.cpp:158
    ofstream file(output_file_name, ios::out | ios::trunc);
    36ea:	48 8d 85 d0 fb ff ff 	lea    -0x430(%rbp),%rax
    36f1:	48 89 c7             	mov    %rax,%rdi
    36f4:	e8 e7 f0 ff ff       	callq  27e0 <_ZNSt14basic_ofstreamIcSt11char_traitsIcEED1Ev@plt>
    36f9:	eb 07                	jmp    3702 <main+0x7cc>
    36fb:	f3 0f 1e fa          	endbr64 
    36ff:	48 89 c3             	mov    %rax,%rbx
/home/donayam/Documents/dove_workspace/vipbench/distinctness/main.cpp:150
	ifstream in(input_file_name,ios::in);	
    3702:	48 8d 85 d0 fd ff ff 	lea    -0x230(%rbp),%rax
    3709:	48 89 c7             	mov    %rax,%rdi
    370c:	e8 ff ed ff ff       	callq  2510 <_ZNSt14basic_ifstreamIcSt11char_traitsIcEED1Ev@plt>
    3711:	eb 07                	jmp    371a <main+0x7e4>
    3713:	f3 0f 1e fa          	endbr64 
    3717:	48 89 c3             	mov    %rax,%rbx
/home/donayam/Documents/dove_workspace/vipbench/distinctness/main.cpp:149
	vector<int> numbers;    
    371a:	48 8d 85 00 fb ff ff 	lea    -0x500(%rbp),%rax
    3721:	48 89 c7             	mov    %rax,%rdi
    3724:	e8 f3 07 00 00       	callq  3f1c <_ZNSt6vectorIiSaIiEED1Ev>
/home/donayam/Documents/dove_workspace/vipbench/distinctness/main.cpp:143
    string output_file_name  = args["output"];      //argv[4];
    3729:	48 8d 85 90 fb ff ff 	lea    -0x470(%rbp),%rax
    3730:	48 89 c7             	mov    %rax,%rdi
    3733:	e8 98 ee ff ff       	callq  25d0 <_ZNSt7__cxx1112basic_stringIcSt11char_traitsIcESaIcEED1Ev@plt>
/home/donayam/Documents/dove_workspace/vipbench/distinctness/main.cpp:142
    string input_file_name   = args["input"];       //argv[3];
    3738:	48 8d 85 70 fb ff ff 	lea    -0x490(%rbp),%rax
    373f:	48 89 c7             	mov    %rax,%rdi
    3742:	e8 89 ee ff ff       	callq  25d0 <_ZNSt7__cxx1112basic_stringIcSt11char_traitsIcESaIcEED1Ev@plt>
/home/donayam/Documents/dove_workspace/vipbench/distinctness/main.cpp:141
    map<string, string> args = parseArgs(argc, argv);
    3747:	48 8d 85 40 fb ff ff 	lea    -0x4c0(%rbp),%rax
    374e:	48 89 c7             	mov    %rax,%rdi
    3751:	e8 c6 01 00 00       	callq  391c <_ZNSt3mapINSt7__cxx1112basic_stringIcSt11char_traitsIcESaIcEEES5_St4lessIS5_ESaISt4pairIKS5_S5_EEED1Ev>
    3756:	48 89 d8             	mov    %rbx,%rax
    3759:	48 89 c7             	mov    %rax,%rdi
    375c:	e8 ff f0 ff ff       	callq  2860 <_Unwind_Resume@plt>
/home/donayam/Documents/dove_workspace/vipbench/distinctness/main.cpp:188
}
    3761:	e8 7a ef ff ff       	callq  26e0 <__stack_chk_fail@plt>
    3766:	48 81 c4 10 05 00 00 	add    $0x510,%rsp
    376d:	5b                   	pop    %rbx
    376e:	41 5c                	pop    %r12
    3770:	41 5d                	pop    %r13
    3772:	41 5e                	pop    %r14
    3774:	5d                   	pop    %rbp
    3775:	c3                   	retq   

0000000000003776 <_Z41__static_initialization_and_destruction_0ii>:
_Z41__static_initialization_and_destruction_0ii():
/home/donayam/Documents/dove_workspace/vipbench/distinctness/main.cpp:188
    3776:	f3 0f 1e fa          	endbr64 
    377a:	55                   	push   %rbp
    377b:	48 89 e5             	mov    %rsp,%rbp
    377e:	48 83 ec 10          	sub    $0x10,%rsp
    3782:	89 7d fc             	mov    %edi,-0x4(%rbp)
    3785:	89 75 f8             	mov    %esi,-0x8(%rbp)
    3788:	83 7d fc 01          	cmpl   $0x1,-0x4(%rbp)
    378c:	75 32                	jne    37c0 <_Z41__static_initialization_and_destruction_0ii+0x4a>
/home/donayam/Documents/dove_workspace/vipbench/distinctness/main.cpp:188 (discriminator 1)
    378e:	81 7d f8 ff ff 00 00 	cmpl   $0xffff,-0x8(%rbp)
    3795:	75 29                	jne    37c0 <_Z41__static_initialization_and_destruction_0ii+0x4a>
/usr/include/c++/9/iostream:74
  extern wostream wclog;	/// Linked to standard error (buffered)
#endif
  ///@}

  // For construction of filebuffers for cout, cin, cerr, clog et. al.
  static ios_base::Init __ioinit;
    3797:	48 8d 3d 62 ba 00 00 	lea    0xba62(%rip),%rdi        # f200 <_ZStL8__ioinit>
    379e:	e8 4d f0 ff ff       	callq  27f0 <_ZNSt8ios_base4InitC1Ev@plt>
    37a3:	48 8d 15 5e b8 00 00 	lea    0xb85e(%rip),%rdx        # f008 <__dso_handle>
    37aa:	48 8d 35 4f ba 00 00 	lea    0xba4f(%rip),%rsi        # f200 <_ZStL8__ioinit>
    37b1:	48 8b 05 40 b8 00 00 	mov    0xb840(%rip),%rax        # eff8 <_ZNSt8ios_base4InitD1Ev@GLIBCXX_3.4>
    37b8:	48 89 c7             	mov    %rax,%rdi
    37bb:	e8 60 ee ff ff       	callq  2620 <__cxa_atexit@plt>
/home/donayam/Documents/dove_workspace/vipbench/distinctness/main.cpp:188
    37c0:	90                   	nop
    37c1:	c9                   	leaveq 
    37c2:	c3                   	retq   

00000000000037c3 <_GLOBAL__sub_I_ctx>:
_GLOBAL__sub_I_ctx():
/home/donayam/Documents/dove_workspace/vipbench/distinctness/main.cpp:188
    37c3:	f3 0f 1e fa          	endbr64 
    37c7:	55                   	push   %rbp
    37c8:	48 89 e5             	mov    %rsp,%rbp
    37cb:	be ff ff 00 00       	mov    $0xffff,%esi
    37d0:	bf 01 00 00 00       	mov    $0x1,%edi
    37d5:	e8 9c ff ff ff       	callq  3776 <_Z41__static_initialization_and_destruction_0ii>
    37da:	5d                   	pop    %rbp
    37db:	c3                   	retq   

00000000000037dc <_ZNKSt6chrono8durationIlSt5ratioILl1ELl1000000000EEE5countEv>:
_ZNKSt6chrono8durationIlSt5ratioILl1ELl1000000000EEE5countEv():
/usr/include/c++/9/chrono:346
	~duration() = default;
	duration& operator=(const duration&) = default;

	// 20.11.5.2 observer
	constexpr rep
	count() const
    37dc:	f3 0f 1e fa          	endbr64 
    37e0:	55                   	push   %rbp
    37e1:	48 89 e5             	mov    %rsp,%rbp
    37e4:	48 89 7d f8          	mov    %rdi,-0x8(%rbp)
/usr/include/c++/9/chrono:347
	{ return __r; }
    37e8:	48 8b 45 f8          	mov    -0x8(%rbp),%rax
    37ec:	48 8b 00             	mov    (%rax),%rax
    37ef:	5d                   	pop    %rbp
    37f0:	c3                   	retq   
    37f1:	90                   	nop

00000000000037f2 <_ZNSt6chrono8durationIlSt5ratioILl1ELl1000000000EEEC1IlvEERKT_>:
_ZNSt6chrono8durationIlSt5ratioILl1ELl1000000000EEEC1IlvEERKT_():
/usr/include/c++/9/chrono:331
	  constexpr explicit duration(const _Rep2& __rep)
    37f2:	f3 0f 1e fa          	endbr64 
    37f6:	55                   	push   %rbp
    37f7:	48 89 e5             	mov    %rsp,%rbp
    37fa:	48 89 7d f8          	mov    %rdi,-0x8(%rbp)
    37fe:	48 89 75 f0          	mov    %rsi,-0x10(%rbp)
/usr/include/c++/9/chrono:332
	  : __r(static_cast<rep>(__rep)) { }
    3802:	48 8b 45 f0          	mov    -0x10(%rbp),%rax
    3806:	48 8b 10             	mov    (%rax),%rdx
    3809:	48 8b 45 f8          	mov    -0x8(%rbp),%rax
    380d:	48 89 10             	mov    %rdx,(%rax)
    3810:	90                   	nop
    3811:	5d                   	pop    %rbp
    3812:	c3                   	retq   

0000000000003813 <_ZnwmPv>:
_ZnwmPv():
/usr/include/c++/9/new:174
#endif // __cpp_sized_deallocation
#endif // __cpp_aligned_new

// Default placement versions of operator new.
_GLIBCXX_NODISCARD inline void* operator new(std::size_t, void* __p) _GLIBCXX_USE_NOEXCEPT
{ return __p; }
    3813:	f3 0f 1e fa          	endbr64 
    3817:	55                   	push   %rbp
    3818:	48 89 e5             	mov    %rsp,%rbp
    381b:	48 89 7d f8          	mov    %rdi,-0x8(%rbp)
    381f:	48 89 75 f0          	mov    %rsi,-0x10(%rbp)
    3823:	48 8b 45 f0          	mov    -0x10(%rbp),%rax
    3827:	5d                   	pop    %rbp
    3828:	c3                   	retq   

0000000000003829 <_ZdlPvS_>:
_ZdlPvS_():
/usr/include/c++/9/new:179
_GLIBCXX_NODISCARD inline void* operator new[](std::size_t, void* __p) _GLIBCXX_USE_NOEXCEPT
{ return __p; }

// Default placement versions of operator delete.
inline void operator delete  (void*, void*) _GLIBCXX_USE_NOEXCEPT { }
    3829:	f3 0f 1e fa          	endbr64 
    382d:	55                   	push   %rbp
    382e:	48 89 e5             	mov    %rsp,%rbp
    3831:	48 89 7d f8          	mov    %rdi,-0x8(%rbp)
    3835:	48 89 75 f0          	mov    %rsi,-0x10(%rbp)
    3839:	90                   	nop
    383a:	5d                   	pop    %rbp
    383b:	c3                   	retq   

000000000000383c <_ZStorSt13_Ios_OpenmodeS_>:
_ZStorSt13_Ios_OpenmodeS_():
/usr/include/c++/9/bits/ios_base.h:130
  operator&(_Ios_Openmode __a, _Ios_Openmode __b)
  { return _Ios_Openmode(static_cast<int>(__a) & static_cast<int>(__b)); }

  inline _GLIBCXX_CONSTEXPR _Ios_Openmode
  operator|(_Ios_Openmode __a, _Ios_Openmode __b)
  { return _Ios_Openmode(static_cast<int>(__a) | static_cast<int>(__b)); }
    383c:	f3 0f 1e fa          	endbr64 
    3840:	55                   	push   %rbp
    3841:	48 89 e5             	mov    %rsp,%rbp
    3844:	89 7d fc             	mov    %edi,-0x4(%rbp)
    3847:	89 75 f8             	mov    %esi,-0x8(%rbp)
    384a:	8b 45 fc             	mov    -0x4(%rbp),%eax
    384d:	0b 45 f8             	or     -0x8(%rbp),%eax
    3850:	5d                   	pop    %rbp
    3851:	c3                   	retq   

0000000000003852 <_ZNSt15_Rb_tree_headerC1Ev>:
_ZNSt15_Rb_tree_headerC2Ev():
/usr/include/c++/9/bits/stl_tree.h:173
  struct _Rb_tree_header
  {
    _Rb_tree_node_base	_M_header;
    size_t		_M_node_count; // Keeps track of size of tree.

    _Rb_tree_header() _GLIBCXX_NOEXCEPT
    3852:	f3 0f 1e fa          	endbr64 
    3856:	55                   	push   %rbp
    3857:	48 89 e5             	mov    %rsp,%rbp
    385a:	48 83 ec 10          	sub    $0x10,%rsp
    385e:	48 89 7d f8          	mov    %rdi,-0x8(%rbp)
/usr/include/c++/9/bits/stl_tree.h:175
    {
      _M_header._M_color = _S_red;
    3862:	48 8b 45 f8          	mov    -0x8(%rbp),%rax
    3866:	c7 00 00 00 00 00    	movl   $0x0,(%rax)
/usr/include/c++/9/bits/stl_tree.h:176
      _M_reset();
    386c:	48 8b 45 f8          	mov    -0x8(%rbp),%rax
    3870:	48 89 c7             	mov    %rax,%rdi
    3873:	e8 04 00 00 00       	callq  387c <_ZNSt15_Rb_tree_header8_M_resetEv>
/usr/include/c++/9/bits/stl_tree.h:177
    }
    3878:	90                   	nop
    3879:	c9                   	leaveq 
    387a:	c3                   	retq   
    387b:	90                   	nop

000000000000387c <_ZNSt15_Rb_tree_header8_M_resetEv>:
_ZNSt15_Rb_tree_header8_M_resetEv():
/usr/include/c++/9/bits/stl_tree.h:206

      __from._M_reset();
    }

    void
    _M_reset()
    387c:	f3 0f 1e fa          	endbr64 
    3880:	55                   	push   %rbp
    3881:	48 89 e5             	mov    %rsp,%rbp
    3884:	48 89 7d f8          	mov    %rdi,-0x8(%rbp)
/usr/include/c++/9/bits/stl_tree.h:208
    {
      _M_header._M_parent = 0;
    3888:	48 8b 45 f8          	mov    -0x8(%rbp),%rax
    388c:	48 c7 40 08 00 00 00 	movq   $0x0,0x8(%rax)
    3893:	00 
/usr/include/c++/9/bits/stl_tree.h:209
      _M_header._M_left = &_M_header;
    3894:	48 8b 55 f8          	mov    -0x8(%rbp),%rdx
    3898:	48 8b 45 f8          	mov    -0x8(%rbp),%rax
    389c:	48 89 50 10          	mov    %rdx,0x10(%rax)
/usr/include/c++/9/bits/stl_tree.h:210
      _M_header._M_right = &_M_header;
    38a0:	48 8b 55 f8          	mov    -0x8(%rbp),%rdx
    38a4:	48 8b 45 f8          	mov    -0x8(%rbp),%rax
    38a8:	48 89 50 18          	mov    %rdx,0x18(%rax)
/usr/include/c++/9/bits/stl_tree.h:211
      _M_node_count = 0;
    38ac:	48 8b 45 f8          	mov    -0x8(%rbp),%rax
    38b0:	48 c7 40 20 00 00 00 	movq   $0x0,0x20(%rax)
    38b7:	00 
/usr/include/c++/9/bits/stl_tree.h:212
    }
    38b8:	90                   	nop
    38b9:	5d                   	pop    %rbp
    38ba:	c3                   	retq   
    38bb:	90                   	nop

00000000000038bc <_ZNSt8_Rb_treeINSt7__cxx1112basic_stringIcSt11char_traitsIcESaIcEEESt4pairIKS5_S5_ESt10_Select1stIS8_ESt4lessIS5_ESaIS8_EE13_Rb_tree_implISC_Lb1EED1Ev>:
_ZNSt8_Rb_treeINSt7__cxx1112basic_stringIcSt11char_traitsIcESaIcEEESt4pairIKS5_S5_ESt10_Select1stIS8_ESt4lessIS5_ESaIS8_EE13_Rb_tree_implISC_Lb1EED2Ev():
/usr/include/c++/9/bits/stl_tree.h:673
#else
      // Unused _Is_pod_comparator is kept as it is part of mangled name.
      template<typename _Key_compare,
	       bool /* _Is_pod_comparator */ = __is_pod(_Key_compare)>
#endif
	struct _Rb_tree_impl
    38bc:	f3 0f 1e fa          	endbr64 
    38c0:	55                   	push   %rbp
    38c1:	48 89 e5             	mov    %rsp,%rbp
    38c4:	48 83 ec 10          	sub    $0x10,%rsp
    38c8:	48 89 7d f8          	mov    %rdi,-0x8(%rbp)
    38cc:	48 8b 45 f8          	mov    -0x8(%rbp),%rax
    38d0:	48 89 c7             	mov    %rax,%rdi
    38d3:	e8 30 02 00 00       	callq  3b08 <_ZNSaISt13_Rb_tree_nodeISt4pairIKNSt7__cxx1112basic_stringIcSt11char_traitsIcESaIcEEES6_EEED1Ev>
    38d8:	90                   	nop
    38d9:	c9                   	leaveq 
    38da:	c3                   	retq   
    38db:	90                   	nop

00000000000038dc <_ZNSt8_Rb_treeINSt7__cxx1112basic_stringIcSt11char_traitsIcESaIcEEESt4pairIKS5_S5_ESt10_Select1stIS8_ESt4lessIS5_ESaIS8_EEC1Ev>:
_ZNSt8_Rb_treeINSt7__cxx1112basic_stringIcSt11char_traitsIcESaIcEEESt4pairIKS5_S5_ESt10_Select1stIS8_ESt4lessIS5_ESaIS8_EEC2Ev():
/usr/include/c++/9/bits/stl_tree.h:944
    public:
      // allocation/deallocation
#if __cplusplus < 201103L
      _Rb_tree() { }
#else
      _Rb_tree() = default;
    38dc:	f3 0f 1e fa          	endbr64 
    38e0:	55                   	push   %rbp
    38e1:	48 89 e5             	mov    %rsp,%rbp
    38e4:	48 83 ec 10          	sub    $0x10,%rsp
    38e8:	48 89 7d f8          	mov    %rdi,-0x8(%rbp)
    38ec:	48 8b 45 f8          	mov    -0x8(%rbp),%rax
    38f0:	48 89 c7             	mov    %rax,%rdi
    38f3:	e8 d4 01 00 00       	callq  3acc <_ZNSt8_Rb_treeINSt7__cxx1112basic_stringIcSt11char_traitsIcESaIcEEESt4pairIKS5_S5_ESt10_Select1stIS8_ESt4lessIS5_ESaIS8_EE13_Rb_tree_implISC_Lb1EEC1Ev>
    38f8:	90                   	nop
    38f9:	c9                   	leaveq 
    38fa:	c3                   	retq   
_ZNSt8_Rb_treeINSt7__cxx1112basic_stringIcSt11char_traitsIcESaIcEEESt4pairIKS5_S5_ESt10_Select1stIS8_ESt4lessIS5_ESaIS8_EEC1Ev():
    38fb:	90                   	nop

00000000000038fc <_ZNSt3mapINSt7__cxx1112basic_stringIcSt11char_traitsIcESaIcEEES5_St4lessIS5_ESaISt4pairIKS5_S5_EEEC1Ev>:
_ZNSt3mapINSt7__cxx1112basic_stringIcSt11char_traitsIcESaIcEEES5_St4lessIS5_ESaISt4pairIKS5_S5_EEEC2Ev():
/usr/include/c++/9/bits/stl_map.h:183
       *  @brief  Default constructor creates no elements.
       */
#if __cplusplus < 201103L
      map() : _M_t() { }
#else
      map() = default;
    38fc:	f3 0f 1e fa          	endbr64 
    3900:	55                   	push   %rbp
    3901:	48 89 e5             	mov    %rsp,%rbp
    3904:	48 83 ec 10          	sub    $0x10,%rsp
    3908:	48 89 7d f8          	mov    %rdi,-0x8(%rbp)
    390c:	48 8b 45 f8          	mov    -0x8(%rbp),%rax
    3910:	48 89 c7             	mov    %rax,%rdi
    3913:	e8 c4 ff ff ff       	callq  38dc <_ZNSt8_Rb_treeINSt7__cxx1112basic_stringIcSt11char_traitsIcESaIcEEESt4pairIKS5_S5_ESt10_Select1stIS8_ESt4lessIS5_ESaIS8_EEC1Ev>
    3918:	90                   	nop
    3919:	c9                   	leaveq 
    391a:	c3                   	retq   
_ZNSt3mapINSt7__cxx1112basic_stringIcSt11char_traitsIcESaIcEEES5_St4lessIS5_ESaISt4pairIKS5_S5_EEEC1Ev():
    391b:	90                   	nop

000000000000391c <_ZNSt3mapINSt7__cxx1112basic_stringIcSt11char_traitsIcESaIcEEES5_St4lessIS5_ESaISt4pairIKS5_S5_EEED1Ev>:
_ZNSt3mapINSt7__cxx1112basic_stringIcSt11char_traitsIcESaIcEEES5_St4lessIS5_ESaISt4pairIKS5_S5_EEED2Ev():
/usr/include/c++/9/bits/stl_map.h:300
      /**
       *  The dtor only erases the elements, and note that if the elements
       *  themselves are pointers, the pointed-to memory is not touched in any
       *  way.  Managing the pointer is the user's responsibility.
       */
      ~map() = default;
    391c:	f3 0f 1e fa          	endbr64 
    3920:	55                   	push   %rbp
    3921:	48 89 e5             	mov    %rsp,%rbp
    3924:	48 83 ec 10          	sub    $0x10,%rsp
    3928:	48 89 7d f8          	mov    %rdi,-0x8(%rbp)
    392c:	48 8b 45 f8          	mov    -0x8(%rbp),%rax
    3930:	48 89 c7             	mov    %rax,%rdi
    3933:	e8 f0 01 00 00       	callq  3b28 <_ZNSt8_Rb_treeINSt7__cxx1112basic_stringIcSt11char_traitsIcESaIcEEESt4pairIKS5_S5_ESt10_Select1stIS8_ESt4lessIS5_ESaIS8_EED1Ev>
    3938:	90                   	nop
    3939:	c9                   	leaveq 
    393a:	c3                   	retq   

000000000000393b <_ZNSt6chrono13duration_castINS_8durationIlSt5ratioILl1ELl1000000000EEEElS3_EENSt9enable_ifIXsrNS_13__is_durationIT_EE5valueES7_E4typeERKNS1_IT0_T1_EE>:
_ZNSt6chrono13duration_castINS_8durationIlSt5ratioILl1ELl1000000000EEEElS3_EENSt9enable_ifIXsrNS_13__is_durationIT_EE5valueES7_E4typeERKNS1_IT0_T1_EE():
/usr/include/c++/9/chrono:191
      duration_cast(const duration<_Rep, _Period>& __d)
    393b:	f3 0f 1e fa          	endbr64 
    393f:	55                   	push   %rbp
    3940:	48 89 e5             	mov    %rsp,%rbp
    3943:	48 83 ec 10          	sub    $0x10,%rsp
    3947:	48 89 7d f8          	mov    %rdi,-0x8(%rbp)
/usr/include/c++/9/chrono:200
	return __dc::__cast(__d);
    394b:	48 8b 45 f8          	mov    -0x8(%rbp),%rax
    394f:	48 89 c7             	mov    %rax,%rdi
    3952:	e8 9f 03 00 00       	callq  3cf6 <_ZNSt6chrono20__duration_cast_implINS_8durationIlSt5ratioILl1ELl1000000000EEEES2_ILl1ELl1EElLb1ELb1EE6__castIlS3_EES4_RKNS1_IT_T0_EE>
/usr/include/c++/9/chrono:201
      }
    3957:	c9                   	leaveq 
    3958:	c3                   	retq   

0000000000003959 <_ZNSt6chronomiINS_3_V212system_clockENS_8durationIlSt5ratioILl1ELl1000000000EEEES6_EENSt11common_typeIJT0_T1_EE4typeERKNS_10time_pointIT_S8_EERKNSC_ISD_S9_EE>:
_ZNSt6chronomiINS_3_V212system_clockENS_8durationIlSt5ratioILl1ELl1000000000EEEES6_EENSt11common_typeIJT0_T1_EE4typeERKNS_10time_pointIT_S8_EERKNSC_ISD_S9_EE():
/usr/include/c++/9/chrono:762
	return __time_point(__lhs.time_since_epoch() -__rhs);
      }

    template<typename _Clock, typename _Dur1, typename _Dur2>
      constexpr typename common_type<_Dur1, _Dur2>::type
      operator-(const time_point<_Clock, _Dur1>& __lhs,
    3959:	f3 0f 1e fa          	endbr64 
    395d:	55                   	push   %rbp
    395e:	48 89 e5             	mov    %rsp,%rbp
    3961:	48 83 ec 30          	sub    $0x30,%rsp
    3965:	48 89 7d d8          	mov    %rdi,-0x28(%rbp)
    3969:	48 89 75 d0          	mov    %rsi,-0x30(%rbp)
    396d:	64 48 8b 04 25 28 00 	mov    %fs:0x28,%rax
    3974:	00 00 
    3976:	48 89 45 f8          	mov    %rax,-0x8(%rbp)
    397a:	31 c0                	xor    %eax,%eax
/usr/include/c++/9/chrono:764
		const time_point<_Clock, _Dur2>& __rhs)
      { return __lhs.time_since_epoch() - __rhs.time_since_epoch(); }
    397c:	48 8b 45 d0          	mov    -0x30(%rbp),%rax
    3980:	48 89 c7             	mov    %rax,%rdi
    3983:	e8 ce 00 00 00       	callq  3a56 <_ZNKSt6chrono10time_pointINS_3_V212system_clockENS_8durationIlSt5ratioILl1ELl1000000000EEEEE16time_since_epochEv>
    3988:	48 89 45 f0          	mov    %rax,-0x10(%rbp)
    398c:	48 8b 45 d8          	mov    -0x28(%rbp),%rax
    3990:	48 89 c7             	mov    %rax,%rdi
    3993:	e8 be 00 00 00       	callq  3a56 <_ZNKSt6chrono10time_pointINS_3_V212system_clockENS_8durationIlSt5ratioILl1ELl1000000000EEEEE16time_since_epochEv>
    3998:	48 89 45 e8          	mov    %rax,-0x18(%rbp)
    399c:	48 8d 55 f0          	lea    -0x10(%rbp),%rdx
    39a0:	48 8d 45 e8          	lea    -0x18(%rbp),%rax
    39a4:	48 89 d6             	mov    %rdx,%rsi
    39a7:	48 89 c7             	mov    %rax,%rdi
    39aa:	e8 16 00 00 00       	callq  39c5 <_ZNSt6chronomiIlSt5ratioILl1ELl1000000000EElS2_EENSt11common_typeIJNS_8durationIT_T0_EENS4_IT1_T2_EEEE4typeERKS7_RKSA_>
    39af:	48 8b 4d f8          	mov    -0x8(%rbp),%rcx
    39b3:	64 48 33 0c 25 28 00 	xor    %fs:0x28,%rcx
    39ba:	00 00 
    39bc:	74 05                	je     39c3 <_ZNSt6chronomiINS_3_V212system_clockENS_8durationIlSt5ratioILl1ELl1000000000EEEES6_EENSt11common_typeIJT0_T1_EE4typeERKNS_10time_pointIT_S8_EERKNSC_ISD_S9_EE+0x6a>
    39be:	e8 1d ed ff ff       	callq  26e0 <__stack_chk_fail@plt>
    39c3:	c9                   	leaveq 
    39c4:	c3                   	retq   

00000000000039c5 <_ZNSt6chronomiIlSt5ratioILl1ELl1000000000EElS2_EENSt11common_typeIJNS_8durationIT_T0_EENS4_IT1_T2_EEEE4typeERKS7_RKSA_>:
_ZNSt6chronomiIlSt5ratioILl1ELl1000000000EElS2_EENSt11common_typeIJNS_8durationIT_T0_EENS4_IT1_T2_EEEE4typeERKS7_RKSA_():
/usr/include/c++/9/chrono:463
      operator-(const duration<_Rep1, _Period1>& __lhs,
    39c5:	f3 0f 1e fa          	endbr64 
    39c9:	55                   	push   %rbp
    39ca:	48 89 e5             	mov    %rsp,%rbp
    39cd:	53                   	push   %rbx
    39ce:	48 83 ec 48          	sub    $0x48,%rsp
    39d2:	48 89 7d b8          	mov    %rdi,-0x48(%rbp)
    39d6:	48 89 75 b0          	mov    %rsi,-0x50(%rbp)
    39da:	64 48 8b 04 25 28 00 	mov    %fs:0x28,%rax
    39e1:	00 00 
    39e3:	48 89 45 e8          	mov    %rax,-0x18(%rbp)
    39e7:	31 c0                	xor    %eax,%eax
/usr/include/c++/9/chrono:469
	return __cd(__cd(__lhs).count() - __cd(__rhs).count());
    39e9:	48 8b 45 b8          	mov    -0x48(%rbp),%rax
    39ed:	48 8b 00             	mov    (%rax),%rax
    39f0:	48 89 45 c8          	mov    %rax,-0x38(%rbp)
    39f4:	48 8d 45 c8          	lea    -0x38(%rbp),%rax
    39f8:	48 89 c7             	mov    %rax,%rdi
    39fb:	e8 dc fd ff ff       	callq  37dc <_ZNKSt6chrono8durationIlSt5ratioILl1ELl1000000000EEE5countEv>
    3a00:	48 89 c3             	mov    %rax,%rbx
    3a03:	48 8b 45 b0          	mov    -0x50(%rbp),%rax
    3a07:	48 8b 00             	mov    (%rax),%rax
    3a0a:	48 89 45 d0          	mov    %rax,-0x30(%rbp)
    3a0e:	48 8d 45 d0          	lea    -0x30(%rbp),%rax
    3a12:	48 89 c7             	mov    %rax,%rdi
    3a15:	e8 c2 fd ff ff       	callq  37dc <_ZNKSt6chrono8durationIlSt5ratioILl1ELl1000000000EEE5countEv>
    3a1a:	48 29 c3             	sub    %rax,%rbx
    3a1d:	48 89 d8             	mov    %rbx,%rax
    3a20:	48 89 45 d8          	mov    %rax,-0x28(%rbp)
    3a24:	48 8d 55 d8          	lea    -0x28(%rbp),%rdx
    3a28:	48 8d 45 e0          	lea    -0x20(%rbp),%rax
    3a2c:	48 89 d6             	mov    %rdx,%rsi
    3a2f:	48 89 c7             	mov    %rax,%rdi
    3a32:	e8 bb fd ff ff       	callq  37f2 <_ZNSt6chrono8durationIlSt5ratioILl1ELl1000000000EEEC1IlvEERKT_>
    3a37:	48 8b 45 e0          	mov    -0x20(%rbp),%rax
/usr/include/c++/9/chrono:470
      }
    3a3b:	48 8b 4d e8          	mov    -0x18(%rbp),%rcx
    3a3f:	64 48 33 0c 25 28 00 	xor    %fs:0x28,%rcx
    3a46:	00 00 
    3a48:	74 05                	je     3a4f <_ZNSt6chronomiIlSt5ratioILl1ELl1000000000EElS2_EENSt11common_typeIJNS_8durationIT_T0_EENS4_IT1_T2_EEEE4typeERKS7_RKSA_+0x8a>
    3a4a:	e8 91 ec ff ff       	callq  26e0 <__stack_chk_fail@plt>
    3a4f:	48 83 c4 48          	add    $0x48,%rsp
    3a53:	5b                   	pop    %rbx
    3a54:	5d                   	pop    %rbp
    3a55:	c3                   	retq   

0000000000003a56 <_ZNKSt6chrono10time_pointINS_3_V212system_clockENS_8durationIlSt5ratioILl1ELl1000000000EEEEE16time_since_epochEv>:
_ZNKSt6chrono10time_pointINS_3_V212system_clockENS_8durationIlSt5ratioILl1ELl1000000000EEEEE16time_since_epochEv():
/usr/include/c++/9/chrono:649
	time_since_epoch() const
    3a56:	f3 0f 1e fa          	endbr64 
    3a5a:	55                   	push   %rbp
    3a5b:	48 89 e5             	mov    %rsp,%rbp
    3a5e:	48 89 7d f8          	mov    %rdi,-0x8(%rbp)
/usr/include/c++/9/chrono:650
	{ return __d; }
    3a62:	48 8b 45 f8          	mov    -0x8(%rbp),%rax
    3a66:	48 8b 00             	mov    (%rax),%rax
    3a69:	5d                   	pop    %rbp
    3a6a:	c3                   	retq   
    3a6b:	90                   	nop

0000000000003a6c <_ZNSt12_Vector_baseIiSaIiEE12_Vector_implD1Ev>:
_ZNSt12_Vector_baseIiSaIiEE12_Vector_implD2Ev():
/usr/include/c++/9/bits/stl_vector.h:125
	  _M_copy_data(__x);
	  __x._M_copy_data(__tmp);
	}
      };

      struct _Vector_impl
    3a6c:	f3 0f 1e fa          	endbr64 
    3a70:	55                   	push   %rbp
    3a71:	48 89 e5             	mov    %rsp,%rbp
    3a74:	48 83 ec 10          	sub    $0x10,%rsp
    3a78:	48 89 7d f8          	mov    %rdi,-0x8(%rbp)
    3a7c:	48 8b 45 f8          	mov    -0x8(%rbp),%rax
    3a80:	48 89 c7             	mov    %rax,%rdi
    3a83:	e8 22 04 00 00       	callq  3eaa <_ZNSaIiED1Ev>
    3a88:	90                   	nop
    3a89:	c9                   	leaveq 
    3a8a:	c3                   	retq   
    3a8b:	90                   	nop

0000000000003a8c <_ZNSt12_Vector_baseIiSaIiEEC1Ev>:
_ZNSt12_Vector_baseIiSaIiEEC2Ev():
/usr/include/c++/9/bits/stl_vector.h:285
      allocator_type
      get_allocator() const _GLIBCXX_NOEXCEPT
      { return allocator_type(_M_get_Tp_allocator()); }

#if __cplusplus >= 201103L
      _Vector_base() = default;
    3a8c:	f3 0f 1e fa          	endbr64 
    3a90:	55                   	push   %rbp
    3a91:	48 89 e5             	mov    %rsp,%rbp
    3a94:	48 83 ec 10          	sub    $0x10,%rsp
    3a98:	48 89 7d f8          	mov    %rdi,-0x8(%rbp)
    3a9c:	48 8b 45 f8          	mov    -0x8(%rbp),%rax
    3aa0:	48 89 c7             	mov    %rax,%rdi
    3aa3:	e8 d6 03 00 00       	callq  3e7e <_ZNSt12_Vector_baseIiSaIiEE12_Vector_implC1Ev>
    3aa8:	90                   	nop
    3aa9:	c9                   	leaveq 
    3aaa:	c3                   	retq   
_ZNSt12_Vector_baseIiSaIiEEC1Ev():
    3aab:	90                   	nop

0000000000003aac <_ZNSt6vectorIiSaIiEEC1Ev>:
_ZNSt6vectorIiSaIiEEC2Ev():
/usr/include/c++/9/bits/stl_vector.h:484

      /**
       *  @brief  Creates a %vector with no elements.
       */
#if __cplusplus >= 201103L
      vector() = default;
    3aac:	f3 0f 1e fa          	endbr64 
    3ab0:	55                   	push   %rbp
    3ab1:	48 89 e5             	mov    %rsp,%rbp
    3ab4:	48 83 ec 10          	sub    $0x10,%rsp
    3ab8:	48 89 7d f8          	mov    %rdi,-0x8(%rbp)
    3abc:	48 8b 45 f8          	mov    -0x8(%rbp),%rax
    3ac0:	48 89 c7             	mov    %rax,%rdi
    3ac3:	e8 c4 ff ff ff       	callq  3a8c <_ZNSt12_Vector_baseIiSaIiEEC1Ev>
    3ac8:	90                   	nop
    3ac9:	c9                   	leaveq 
    3aca:	c3                   	retq   
    3acb:	90                   	nop

0000000000003acc <_ZNSt8_Rb_treeINSt7__cxx1112basic_stringIcSt11char_traitsIcESaIcEEESt4pairIKS5_S5_ESt10_Select1stIS8_ESt4lessIS5_ESaIS8_EE13_Rb_tree_implISC_Lb1EEC1Ev>:
_ZNSt8_Rb_treeINSt7__cxx1112basic_stringIcSt11char_traitsIcESaIcEEESt4pairIKS5_S5_ESt10_Select1stIS8_ESt4lessIS5_ESaIS8_EE13_Rb_tree_implISC_Lb1EEC2Ev():
/usr/include/c++/9/bits/stl_tree.h:680
	  _Rb_tree_impl()
    3acc:	f3 0f 1e fa          	endbr64 
    3ad0:	55                   	push   %rbp
    3ad1:	48 89 e5             	mov    %rsp,%rbp
    3ad4:	48 83 ec 10          	sub    $0x10,%rsp
    3ad8:	48 89 7d f8          	mov    %rdi,-0x8(%rbp)
/usr/include/c++/9/bits/stl_tree.h:684
	  : _Node_allocator()
    3adc:	48 8b 45 f8          	mov    -0x8(%rbp),%rax
    3ae0:	48 89 c7             	mov    %rax,%rdi
    3ae3:	e8 62 07 00 00       	callq  424a <_ZNSaISt13_Rb_tree_nodeISt4pairIKNSt7__cxx1112basic_stringIcSt11char_traitsIcESaIcEEES6_EEEC1Ev>
    3ae8:	48 8b 45 f8          	mov    -0x8(%rbp),%rax
    3aec:	48 89 c7             	mov    %rax,%rdi
    3aef:	e8 76 07 00 00       	callq  426a <_ZNSt20_Rb_tree_key_compareISt4lessINSt7__cxx1112basic_stringIcSt11char_traitsIcESaIcEEEEEC1Ev>
    3af4:	48 8b 45 f8          	mov    -0x8(%rbp),%rax
    3af8:	48 83 c0 08          	add    $0x8,%rax
    3afc:	48 89 c7             	mov    %rax,%rdi
    3aff:	e8 4e fd ff ff       	callq  3852 <_ZNSt15_Rb_tree_headerC1Ev>
/usr/include/c++/9/bits/stl_tree.h:685
	  { }
    3b04:	90                   	nop
    3b05:	c9                   	leaveq 
    3b06:	c3                   	retq   
_ZNSt8_Rb_treeINSt7__cxx1112basic_stringIcSt11char_traitsIcESaIcEEESt4pairIKS5_S5_ESt10_Select1stIS8_ESt4lessIS5_ESaIS8_EE13_Rb_tree_implISC_Lb1EEC1Ev():
    3b07:	90                   	nop

0000000000003b08 <_ZNSaISt13_Rb_tree_nodeISt4pairIKNSt7__cxx1112basic_stringIcSt11char_traitsIcESaIcEEES6_EEED1Ev>:
_ZNSaISt13_Rb_tree_nodeISt4pairIKNSt7__cxx1112basic_stringIcSt11char_traitsIcESaIcEEES6_EEED2Ev():
/usr/include/c++/9/bits/allocator.h:152

      template<typename _Tp1>
	_GLIBCXX20_CONSTEXPR
	allocator(const allocator<_Tp1>&) _GLIBCXX_NOTHROW { }

      ~allocator() _GLIBCXX_NOTHROW { }
    3b08:	f3 0f 1e fa          	endbr64 
    3b0c:	55                   	push   %rbp
    3b0d:	48 89 e5             	mov    %rsp,%rbp
    3b10:	48 83 ec 10          	sub    $0x10,%rsp
    3b14:	48 89 7d f8          	mov    %rdi,-0x8(%rbp)
    3b18:	48 8b 45 f8          	mov    -0x8(%rbp),%rax
    3b1c:	48 89 c7             	mov    %rax,%rdi
    3b1f:	e8 56 07 00 00       	callq  427a <_ZN9__gnu_cxx13new_allocatorISt13_Rb_tree_nodeISt4pairIKNSt7__cxx1112basic_stringIcSt11char_traitsIcESaIcEEES8_EEED1Ev>
    3b24:	90                   	nop
    3b25:	c9                   	leaveq 
    3b26:	c3                   	retq   
_ZNSaISt13_Rb_tree_nodeISt4pairIKNSt7__cxx1112basic_stringIcSt11char_traitsIcESaIcEEES6_EEED1Ev():
    3b27:	90                   	nop

0000000000003b28 <_ZNSt8_Rb_treeINSt7__cxx1112basic_stringIcSt11char_traitsIcESaIcEEESt4pairIKS5_S5_ESt10_Select1stIS8_ESt4lessIS5_ESaIS8_EED1Ev>:
_ZNSt8_Rb_treeINSt7__cxx1112basic_stringIcSt11char_traitsIcESaIcEEESt4pairIKS5_S5_ESt10_Select1stIS8_ESt4lessIS5_ESaIS8_EED2Ev():
/usr/include/c++/9/bits/stl_tree.h:999
      : _Rb_tree(std::move(__x), std::move(__a),
		 typename _Alloc_traits::is_always_equal{})
      { }
#endif

      ~_Rb_tree() _GLIBCXX_NOEXCEPT
    3b28:	f3 0f 1e fa          	endbr64 
    3b2c:	55                   	push   %rbp
    3b2d:	48 89 e5             	mov    %rsp,%rbp
    3b30:	48 83 ec 10          	sub    $0x10,%rsp
    3b34:	48 89 7d f8          	mov    %rdi,-0x8(%rbp)
/usr/include/c++/9/bits/stl_tree.h:1000
      { _M_erase(_M_begin()); }
    3b38:	48 8b 45 f8          	mov    -0x8(%rbp),%rax
    3b3c:	48 89 c7             	mov    %rax,%rdi
    3b3f:	e8 b0 07 00 00       	callq  42f4 <_ZNSt8_Rb_treeINSt7__cxx1112basic_stringIcSt11char_traitsIcESaIcEEESt4pairIKS5_S5_ESt10_Select1stIS8_ESt4lessIS5_ESaIS8_EE8_M_beginEv>
    3b44:	48 89 c2             	mov    %rax,%rdx
    3b47:	48 8b 45 f8          	mov    -0x8(%rbp),%rax
    3b4b:	48 89 d6             	mov    %rdx,%rsi
    3b4e:	48 89 c7             	mov    %rax,%rdi
    3b51:	e8 34 07 00 00       	callq  428a <_ZNSt8_Rb_treeINSt7__cxx1112basic_stringIcSt11char_traitsIcESaIcEEESt4pairIKS5_S5_ESt10_Select1stIS8_ESt4lessIS5_ESaIS8_EE8_M_eraseEPSt13_Rb_tree_nodeIS8_E>
    3b56:	48 8b 45 f8          	mov    -0x8(%rbp),%rax
    3b5a:	48 89 c7             	mov    %rax,%rdi
    3b5d:	e8 5a fd ff ff       	callq  38bc <_ZNSt8_Rb_treeINSt7__cxx1112basic_stringIcSt11char_traitsIcESaIcEEESt4pairIKS5_S5_ESt10_Select1stIS8_ESt4lessIS5_ESaIS8_EE13_Rb_tree_implISC_Lb1EED1Ev>
    3b62:	90                   	nop
    3b63:	c9                   	leaveq 
    3b64:	c3                   	retq   
    3b65:	90                   	nop

0000000000003b66 <_ZNSt3mapINSt7__cxx1112basic_stringIcSt11char_traitsIcESaIcEEES5_St4lessIS5_ESaISt4pairIKS5_S5_EEEixERS9_>:
_ZNSt3mapINSt7__cxx1112basic_stringIcSt11char_traitsIcESaIcEEES5_St4lessIS5_ESaISt4pairIKS5_S5_EEEixERS9_():
/usr/include/c++/9/bits/stl_map.h:490
       *  is created using default values, which is then returned.
       *
       *  Lookup requires logarithmic time.
       */
      mapped_type&
      operator[](const key_type& __k)
    3b66:	f3 0f 1e fa          	endbr64 
    3b6a:	55                   	push   %rbp
    3b6b:	48 89 e5             	mov    %rsp,%rbp
    3b6e:	53                   	push   %rbx
    3b6f:	48 83 ec 48          	sub    $0x48,%rsp
    3b73:	48 89 7d b8          	mov    %rdi,-0x48(%rbp)
    3b77:	48 89 75 b0          	mov    %rsi,-0x50(%rbp)
    3b7b:	64 48 8b 04 25 28 00 	mov    %fs:0x28,%rax
    3b82:	00 00 
    3b84:	48 89 45 e8          	mov    %rax,-0x18(%rbp)
    3b88:	31 c0                	xor    %eax,%eax
/usr/include/c++/9/bits/stl_map.h:495
      {
	// concept requirements
	__glibcxx_function_requires(_DefaultConstructibleConcept<mapped_type>)

	iterator __i = lower_bound(__k);
    3b8a:	48 8b 55 b0          	mov    -0x50(%rbp),%rdx
    3b8e:	48 8b 45 b8          	mov    -0x48(%rbp),%rax
    3b92:	48 89 d6             	mov    %rdx,%rsi
    3b95:	48 89 c7             	mov    %rax,%rdi
    3b98:	e8 6d 07 00 00       	callq  430a <_ZNSt3mapINSt7__cxx1112basic_stringIcSt11char_traitsIcESaIcEEES5_St4lessIS5_ESaISt4pairIKS5_S5_EEE11lower_boundERS9_>
    3b9d:	48 89 45 d0          	mov    %rax,-0x30(%rbp)
/usr/include/c++/9/bits/stl_map.h:497
	// __i->first is greater than or equivalent to __k.
	if (__i == end() || key_comp()(__k, (*__i).first))
    3ba1:	48 8b 45 b8          	mov    -0x48(%rbp),%rax
    3ba5:	48 89 c7             	mov    %rax,%rdi
    3ba8:	e8 05 01 00 00       	callq  3cb2 <_ZNSt3mapINSt7__cxx1112basic_stringIcSt11char_traitsIcESaIcEEES5_St4lessIS5_ESaISt4pairIKS5_S5_EEE3endEv>
    3bad:	48 89 45 e0          	mov    %rax,-0x20(%rbp)
    3bb1:	48 8d 55 e0          	lea    -0x20(%rbp),%rdx
    3bb5:	48 8d 45 d0          	lea    -0x30(%rbp),%rax
    3bb9:	48 89 d6             	mov    %rdx,%rsi
    3bbc:	48 89 c7             	mov    %rax,%rdi
    3bbf:	e8 0c 01 00 00       	callq  3cd0 <_ZSteqRKSt17_Rb_tree_iteratorISt4pairIKNSt7__cxx1112basic_stringIcSt11char_traitsIcESaIcEEES6_EESB_>
    3bc4:	84 c0                	test   %al,%al
    3bc6:	75 32                	jne    3bfa <_ZNSt3mapINSt7__cxx1112basic_stringIcSt11char_traitsIcESaIcEEES5_St4lessIS5_ESaISt4pairIKS5_S5_EEEixERS9_+0x94>
/usr/include/c++/9/bits/stl_map.h:497 (discriminator 2)
    3bc8:	48 8b 45 b8          	mov    -0x48(%rbp),%rax
    3bcc:	48 89 c7             	mov    %rax,%rdi
    3bcf:	e8 60 07 00 00       	callq  4334 <_ZNKSt3mapINSt7__cxx1112basic_stringIcSt11char_traitsIcESaIcEEES5_St4lessIS5_ESaISt4pairIKS5_S5_EEE8key_compEv>
    3bd4:	48 8d 45 d0          	lea    -0x30(%rbp),%rax
    3bd8:	48 89 c7             	mov    %rax,%rdi
    3bdb:	e8 7a 07 00 00       	callq  435a <_ZNKSt17_Rb_tree_iteratorISt4pairIKNSt7__cxx1112basic_stringIcSt11char_traitsIcESaIcEEES6_EEdeEv>
    3be0:	48 89 c2             	mov    %rax,%rdx
    3be3:	48 8b 4d b0          	mov    -0x50(%rbp),%rcx
    3be7:	48 8d 45 d8          	lea    -0x28(%rbp),%rax
    3beb:	48 89 ce             	mov    %rcx,%rsi
    3bee:	48 89 c7             	mov    %rax,%rdi
    3bf1:	e8 86 07 00 00       	callq  437c <_ZNKSt4lessINSt7__cxx1112basic_stringIcSt11char_traitsIcESaIcEEEEclERKS5_S8_>
    3bf6:	84 c0                	test   %al,%al
    3bf8:	74 07                	je     3c01 <_ZNSt3mapINSt7__cxx1112basic_stringIcSt11char_traitsIcESaIcEEES5_St4lessIS5_ESaISt4pairIKS5_S5_EEEixERS9_+0x9b>
/usr/include/c++/9/bits/stl_map.h:497 (discriminator 5)
    3bfa:	b8 01 00 00 00       	mov    $0x1,%eax
    3bff:	eb 05                	jmp    3c06 <_ZNSt3mapINSt7__cxx1112basic_stringIcSt11char_traitsIcESaIcEEES5_St4lessIS5_ESaISt4pairIKS5_S5_EEEixERS9_+0xa0>
/usr/include/c++/9/bits/stl_map.h:497 (discriminator 6)
    3c01:	b8 00 00 00 00       	mov    $0x0,%eax
/usr/include/c++/9/bits/stl_map.h:497 (discriminator 8)
    3c06:	84 c0                	test   %al,%al
    3c08:	74 52                	je     3c5c <_ZNSt3mapINSt7__cxx1112basic_stringIcSt11char_traitsIcESaIcEEES5_St4lessIS5_ESaISt4pairIKS5_S5_EEEixERS9_+0xf6>
/usr/include/c++/9/bits/stl_map.h:499
#if __cplusplus >= 201103L
	  __i = _M_t._M_emplace_hint_unique(__i, std::piecewise_construct,
    3c0a:	48 8b 5d b8          	mov    -0x48(%rbp),%rbx
    3c0e:	48 8b 55 b0          	mov    -0x50(%rbp),%rdx
    3c12:	48 8d 45 d8          	lea    -0x28(%rbp),%rax
    3c16:	48 89 d6             	mov    %rdx,%rsi
    3c19:	48 89 c7             	mov    %rax,%rdi
    3c1c:	e8 89 07 00 00       	callq  43aa <_ZNSt5tupleIJRKNSt7__cxx1112basic_stringIcSt11char_traitsIcESaIcEEEEEC1IvLb1EEES7_>
    3c21:	48 8d 55 d0          	lea    -0x30(%rbp),%rdx
    3c25:	48 8d 45 e0          	lea    -0x20(%rbp),%rax
    3c29:	48 89 d6             	mov    %rdx,%rsi
    3c2c:	48 89 c7             	mov    %rax,%rdi
    3c2f:	e8 a0 07 00 00       	callq  43d4 <_ZNSt23_Rb_tree_const_iteratorISt4pairIKNSt7__cxx1112basic_stringIcSt11char_traitsIcESaIcEEES6_EEC1ERKSt17_Rb_tree_iteratorIS8_E>
    3c34:	48 8d 4d cf          	lea    -0x31(%rbp),%rcx
    3c38:	48 8d 55 d8          	lea    -0x28(%rbp),%rdx
    3c3c:	48 8b 45 e0          	mov    -0x20(%rbp),%rax
    3c40:	49 89 c8             	mov    %rcx,%r8
    3c43:	48 89 d1             	mov    %rdx,%rcx
    3c46:	48 8d 15 bb 63 00 00 	lea    0x63bb(%rip),%rdx        # a008 <_ZStL19piecewise_construct>
    3c4d:	48 89 c6             	mov    %rax,%rsi
    3c50:	48 89 df             	mov    %rbx,%rdi
    3c53:	e8 9e 07 00 00       	callq  43f6 <_ZNSt8_Rb_treeINSt7__cxx1112basic_stringIcSt11char_traitsIcESaIcEEESt4pairIKS5_S5_ESt10_Select1stIS8_ESt4lessIS5_ESaIS8_EE22_M_emplace_hint_uniqueIJRKSt21piecewise_construct_tSt5tupleIJRS7_EESJ_IJEEEEESt17_Rb_tree_iteratorIS8_ESt23_Rb_tree_const_iteratorIS8_EDpOT_>
    3c58:	48 89 45 d0          	mov    %rax,-0x30(%rbp)
/usr/include/c++/9/bits/stl_map.h:505
					    std::tuple<const key_type&>(__k),
					    std::tuple<>());
#else
	  __i = insert(__i, value_type(__k, mapped_type()));
#endif
	return (*__i).second;
    3c5c:	48 8d 45 d0          	lea    -0x30(%rbp),%rax
    3c60:	48 89 c7             	mov    %rax,%rdi
    3c63:	e8 f2 06 00 00       	callq  435a <_ZNKSt17_Rb_tree_iteratorISt4pairIKNSt7__cxx1112basic_stringIcSt11char_traitsIcESaIcEEES6_EEdeEv>
    3c68:	48 83 c0 20          	add    $0x20,%rax
/usr/include/c++/9/bits/stl_map.h:506
      }
    3c6c:	48 8b 5d e8          	mov    -0x18(%rbp),%rbx
    3c70:	64 48 33 1c 25 28 00 	xor    %fs:0x28,%rbx
    3c77:	00 00 
    3c79:	74 05                	je     3c80 <_ZNSt3mapINSt7__cxx1112basic_stringIcSt11char_traitsIcESaIcEEES5_St4lessIS5_ESaISt4pairIKS5_S5_EEEixERS9_+0x11a>
    3c7b:	e8 60 ea ff ff       	callq  26e0 <__stack_chk_fail@plt>
    3c80:	48 83 c4 48          	add    $0x48,%rsp
    3c84:	5b                   	pop    %rbx
    3c85:	5d                   	pop    %rbp
    3c86:	c3                   	retq   
    3c87:	90                   	nop

0000000000003c88 <_ZNSt3mapINSt7__cxx1112basic_stringIcSt11char_traitsIcESaIcEEES5_St4lessIS5_ESaISt4pairIKS5_S5_EEE4findERS9_>:
_ZNSt3mapINSt7__cxx1112basic_stringIcSt11char_traitsIcESaIcEEES5_St4lessIS5_ESaISt4pairIKS5_S5_EEE4findERS9_():
/usr/include/c++/9/bits/stl_map.h:1168
       *  pointing to the sought after %pair.  If unsuccessful it returns the
       *  past-the-end ( @c end() ) iterator.
       */

      iterator
      find(const key_type& __x)
    3c88:	f3 0f 1e fa          	endbr64 
    3c8c:	55                   	push   %rbp
    3c8d:	48 89 e5             	mov    %rsp,%rbp
    3c90:	48 83 ec 10          	sub    $0x10,%rsp
    3c94:	48 89 7d f8          	mov    %rdi,-0x8(%rbp)
    3c98:	48 89 75 f0          	mov    %rsi,-0x10(%rbp)
/usr/include/c++/9/bits/stl_map.h:1169
      { return _M_t.find(__x); }
    3c9c:	48 8b 45 f8          	mov    -0x8(%rbp),%rax
    3ca0:	48 8b 55 f0          	mov    -0x10(%rbp),%rdx
    3ca4:	48 89 d6             	mov    %rdx,%rsi
    3ca7:	48 89 c7             	mov    %rax,%rdi
    3caa:	e8 8d 08 00 00       	callq  453c <_ZNSt8_Rb_treeINSt7__cxx1112basic_stringIcSt11char_traitsIcESaIcEEESt4pairIKS5_S5_ESt10_Select1stIS8_ESt4lessIS5_ESaIS8_EE4findERS7_>
    3caf:	c9                   	leaveq 
    3cb0:	c3                   	retq   
    3cb1:	90                   	nop

0000000000003cb2 <_ZNSt3mapINSt7__cxx1112basic_stringIcSt11char_traitsIcESaIcEEES5_St4lessIS5_ESaISt4pairIKS5_S5_EEE3endEv>:
_ZNSt3mapINSt7__cxx1112basic_stringIcSt11char_traitsIcESaIcEEES5_St4lessIS5_ESaISt4pairIKS5_S5_EEE3endEv():
/usr/include/c++/9/bits/stl_map.h:372
      end() _GLIBCXX_NOEXCEPT
    3cb2:	f3 0f 1e fa          	endbr64 
    3cb6:	55                   	push   %rbp
    3cb7:	48 89 e5             	mov    %rsp,%rbp
    3cba:	48 83 ec 10          	sub    $0x10,%rsp
    3cbe:	48 89 7d f8          	mov    %rdi,-0x8(%rbp)
/usr/include/c++/9/bits/stl_map.h:373
      { return _M_t.end(); }
    3cc2:	48 8b 45 f8          	mov    -0x8(%rbp),%rax
    3cc6:	48 89 c7             	mov    %rax,%rdi
    3cc9:	e8 44 09 00 00       	callq  4612 <_ZNSt8_Rb_treeINSt7__cxx1112basic_stringIcSt11char_traitsIcESaIcEEESt4pairIKS5_S5_ESt10_Select1stIS8_ESt4lessIS5_ESaIS8_EE3endEv>
    3cce:	c9                   	leaveq 
    3ccf:	c3                   	retq   

0000000000003cd0 <_ZSteqRKSt17_Rb_tree_iteratorISt4pairIKNSt7__cxx1112basic_stringIcSt11char_traitsIcESaIcEEES6_EESB_>:
_ZSteqRKSt17_Rb_tree_iteratorISt4pairIKNSt7__cxx1112basic_stringIcSt11char_traitsIcESaIcEEES6_EESB_():
/usr/include/c++/9/bits/stl_tree.h:315
      operator==(const _Self& __x, const _Self& __y) _GLIBCXX_NOEXCEPT
    3cd0:	f3 0f 1e fa          	endbr64 
    3cd4:	55                   	push   %rbp
    3cd5:	48 89 e5             	mov    %rsp,%rbp
    3cd8:	48 89 7d f8          	mov    %rdi,-0x8(%rbp)
    3cdc:	48 89 75 f0          	mov    %rsi,-0x10(%rbp)
/usr/include/c++/9/bits/stl_tree.h:316
      { return __x._M_node == __y._M_node; }
    3ce0:	48 8b 45 f8          	mov    -0x8(%rbp),%rax
    3ce4:	48 8b 10             	mov    (%rax),%rdx
    3ce7:	48 8b 45 f0          	mov    -0x10(%rbp),%rax
    3ceb:	48 8b 00             	mov    (%rax),%rax
    3cee:	48 39 c2             	cmp    %rax,%rdx
    3cf1:	0f 94 c0             	sete   %al
    3cf4:	5d                   	pop    %rbp
    3cf5:	c3                   	retq   

0000000000003cf6 <_ZNSt6chrono20__duration_cast_implINS_8durationIlSt5ratioILl1ELl1000000000EEEES2_ILl1ELl1EElLb1ELb1EE6__castIlS3_EES4_RKNS1_IT_T0_EE>:
_ZNSt6chrono20__duration_cast_implINS_8durationIlSt5ratioILl1ELl1000000000EEEES2_ILl1ELl1EElLb1ELb1EE6__castIlS3_EES4_RKNS1_IT_T0_EE():
/usr/include/c++/9/chrono:137
	  __cast(const duration<_Rep, _Period>& __d)
    3cf6:	f3 0f 1e fa          	endbr64 
    3cfa:	55                   	push   %rbp
    3cfb:	48 89 e5             	mov    %rsp,%rbp
    3cfe:	48 83 ec 30          	sub    $0x30,%rsp
    3d02:	48 89 7d d8          	mov    %rdi,-0x28(%rbp)
    3d06:	64 48 8b 04 25 28 00 	mov    %fs:0x28,%rax
    3d0d:	00 00 
    3d0f:	48 89 45 f8          	mov    %rax,-0x8(%rbp)
    3d13:	31 c0                	xor    %eax,%eax
/usr/include/c++/9/chrono:140
	    return _ToDur(static_cast<__to_rep>(__d.count()));
    3d15:	48 8b 45 d8          	mov    -0x28(%rbp),%rax
    3d19:	48 89 c7             	mov    %rax,%rdi
    3d1c:	e8 bb fa ff ff       	callq  37dc <_ZNKSt6chrono8durationIlSt5ratioILl1ELl1000000000EEE5countEv>
    3d21:	48 89 45 e8          	mov    %rax,-0x18(%rbp)
    3d25:	48 8d 55 e8          	lea    -0x18(%rbp),%rdx
    3d29:	48 8d 45 f0          	lea    -0x10(%rbp),%rax
    3d2d:	48 89 d6             	mov    %rdx,%rsi
    3d30:	48 89 c7             	mov    %rax,%rdi
    3d33:	e8 ba fa ff ff       	callq  37f2 <_ZNSt6chrono8durationIlSt5ratioILl1ELl1000000000EEEC1IlvEERKT_>
    3d38:	48 8b 45 f0          	mov    -0x10(%rbp),%rax
/usr/include/c++/9/chrono:141
	  }
    3d3c:	48 8b 4d f8          	mov    -0x8(%rbp),%rcx
    3d40:	64 48 33 0c 25 28 00 	xor    %fs:0x28,%rcx
    3d47:	00 00 
    3d49:	74 05                	je     3d50 <_ZNSt6chrono20__duration_cast_implINS_8durationIlSt5ratioILl1ELl1000000000EEEES2_ILl1ELl1EElLb1ELb1EE6__castIlS3_EES4_RKNS1_IT_T0_EE+0x5a>
    3d4b:	e8 90 e9 ff ff       	callq  26e0 <__stack_chk_fail@plt>
    3d50:	c9                   	leaveq 
    3d51:	c3                   	retq   

0000000000003d52 <_ZNSt3mapINSt7__cxx1112basic_stringIcSt11char_traitsIcESaIcEEES5_St4lessIS5_ESaISt4pairIKS5_S5_EEEixEOS5_>:
_ZNSt3mapINSt7__cxx1112basic_stringIcSt11char_traitsIcESaIcEEES5_St4lessIS5_ESaISt4pairIKS5_S5_EEEixEOS5_():
/usr/include/c++/9/bits/stl_map.h:510
      operator[](key_type&& __k)
    3d52:	f3 0f 1e fa          	endbr64 
    3d56:	55                   	push   %rbp
    3d57:	48 89 e5             	mov    %rsp,%rbp
    3d5a:	53                   	push   %rbx
    3d5b:	48 83 ec 48          	sub    $0x48,%rsp
    3d5f:	48 89 7d b8          	mov    %rdi,-0x48(%rbp)
    3d63:	48 89 75 b0          	mov    %rsi,-0x50(%rbp)
    3d67:	64 48 8b 04 25 28 00 	mov    %fs:0x28,%rax
    3d6e:	00 00 
    3d70:	48 89 45 e8          	mov    %rax,-0x18(%rbp)
    3d74:	31 c0                	xor    %eax,%eax
/usr/include/c++/9/bits/stl_map.h:515
	iterator __i = lower_bound(__k);
    3d76:	48 8b 55 b0          	mov    -0x50(%rbp),%rdx
    3d7a:	48 8b 45 b8          	mov    -0x48(%rbp),%rax
    3d7e:	48 89 d6             	mov    %rdx,%rsi
    3d81:	48 89 c7             	mov    %rax,%rdi
    3d84:	e8 81 05 00 00       	callq  430a <_ZNSt3mapINSt7__cxx1112basic_stringIcSt11char_traitsIcESaIcEEES5_St4lessIS5_ESaISt4pairIKS5_S5_EEE11lower_boundERS9_>
    3d89:	48 89 45 d0          	mov    %rax,-0x30(%rbp)
/usr/include/c++/9/bits/stl_map.h:517
	if (__i == end() || key_comp()(__k, (*__i).first))
    3d8d:	48 8b 45 b8          	mov    -0x48(%rbp),%rax
    3d91:	48 89 c7             	mov    %rax,%rdi
    3d94:	e8 19 ff ff ff       	callq  3cb2 <_ZNSt3mapINSt7__cxx1112basic_stringIcSt11char_traitsIcESaIcEEES5_St4lessIS5_ESaISt4pairIKS5_S5_EEE3endEv>
    3d99:	48 89 45 e0          	mov    %rax,-0x20(%rbp)
    3d9d:	48 8d 55 e0          	lea    -0x20(%rbp),%rdx
    3da1:	48 8d 45 d0          	lea    -0x30(%rbp),%rax
    3da5:	48 89 d6             	mov    %rdx,%rsi
    3da8:	48 89 c7             	mov    %rax,%rdi
    3dab:	e8 20 ff ff ff       	callq  3cd0 <_ZSteqRKSt17_Rb_tree_iteratorISt4pairIKNSt7__cxx1112basic_stringIcSt11char_traitsIcESaIcEEES6_EESB_>
    3db0:	84 c0                	test   %al,%al
    3db2:	75 32                	jne    3de6 <_ZNSt3mapINSt7__cxx1112basic_stringIcSt11char_traitsIcESaIcEEES5_St4lessIS5_ESaISt4pairIKS5_S5_EEEixEOS5_+0x94>
/usr/include/c++/9/bits/stl_map.h:517 (discriminator 2)
    3db4:	48 8b 45 b8          	mov    -0x48(%rbp),%rax
    3db8:	48 89 c7             	mov    %rax,%rdi
    3dbb:	e8 74 05 00 00       	callq  4334 <_ZNKSt3mapINSt7__cxx1112basic_stringIcSt11char_traitsIcESaIcEEES5_St4lessIS5_ESaISt4pairIKS5_S5_EEE8key_compEv>
    3dc0:	48 8d 45 d0          	lea    -0x30(%rbp),%rax
    3dc4:	48 89 c7             	mov    %rax,%rdi
    3dc7:	e8 8e 05 00 00       	callq  435a <_ZNKSt17_Rb_tree_iteratorISt4pairIKNSt7__cxx1112basic_stringIcSt11char_traitsIcESaIcEEES6_EEdeEv>
    3dcc:	48 89 c2             	mov    %rax,%rdx
    3dcf:	48 8b 4d b0          	mov    -0x50(%rbp),%rcx
    3dd3:	48 8d 45 d8          	lea    -0x28(%rbp),%rax
    3dd7:	48 89 ce             	mov    %rcx,%rsi
    3dda:	48 89 c7             	mov    %rax,%rdi
    3ddd:	e8 9a 05 00 00       	callq  437c <_ZNKSt4lessINSt7__cxx1112basic_stringIcSt11char_traitsIcESaIcEEEEclERKS5_S8_>
    3de2:	84 c0                	test   %al,%al
    3de4:	74 07                	je     3ded <_ZNSt3mapINSt7__cxx1112basic_stringIcSt11char_traitsIcESaIcEEES5_St4lessIS5_ESaISt4pairIKS5_S5_EEEixEOS5_+0x9b>
/usr/include/c++/9/bits/stl_map.h:517 (discriminator 5)
    3de6:	b8 01 00 00 00       	mov    $0x1,%eax
    3deb:	eb 05                	jmp    3df2 <_ZNSt3mapINSt7__cxx1112basic_stringIcSt11char_traitsIcESaIcEEES5_St4lessIS5_ESaISt4pairIKS5_S5_EEEixEOS5_+0xa0>
/usr/include/c++/9/bits/stl_map.h:517 (discriminator 6)
    3ded:	b8 00 00 00 00       	mov    $0x0,%eax
/usr/include/c++/9/bits/stl_map.h:517 (discriminator 8)
    3df2:	84 c0                	test   %al,%al
    3df4:	74 5d                	je     3e53 <_ZNSt3mapINSt7__cxx1112basic_stringIcSt11char_traitsIcESaIcEEES5_St4lessIS5_ESaISt4pairIKS5_S5_EEEixEOS5_+0x101>
/usr/include/c++/9/bits/stl_map.h:518
	  __i = _M_t._M_emplace_hint_unique(__i, std::piecewise_construct,
    3df6:	48 8b 5d b8          	mov    -0x48(%rbp),%rbx
/usr/include/c++/9/bits/stl_map.h:519
					std::forward_as_tuple(std::move(__k)),
    3dfa:	48 8b 45 b0          	mov    -0x50(%rbp),%rax
    3dfe:	48 89 c7             	mov    %rax,%rdi
    3e01:	e8 32 04 00 00       	callq  4238 <_ZSt4moveIRNSt7__cxx1112basic_stringIcSt11char_traitsIcESaIcEEEEONSt16remove_referenceIT_E4typeEOS8_>
    3e06:	48 89 c2             	mov    %rax,%rdx
/usr/include/c++/9/bits/stl_map.h:518
	  __i = _M_t._M_emplace_hint_unique(__i, std::piecewise_construct,
    3e09:	48 8d 45 d8          	lea    -0x28(%rbp),%rax
    3e0d:	48 89 d6             	mov    %rdx,%rsi
    3e10:	48 89 c7             	mov    %rax,%rdi
    3e13:	e8 74 08 00 00       	callq  468c <_ZSt16forward_as_tupleIJNSt7__cxx1112basic_stringIcSt11char_traitsIcESaIcEEEEESt5tupleIJDpOT_EES9_>
    3e18:	48 8d 55 d0          	lea    -0x30(%rbp),%rdx
    3e1c:	48 8d 45 e0          	lea    -0x20(%rbp),%rax
    3e20:	48 89 d6             	mov    %rdx,%rsi
    3e23:	48 89 c7             	mov    %rax,%rdi
    3e26:	e8 a9 05 00 00       	callq  43d4 <_ZNSt23_Rb_tree_const_iteratorISt4pairIKNSt7__cxx1112basic_stringIcSt11char_traitsIcESaIcEEES6_EEC1ERKSt17_Rb_tree_iteratorIS8_E>
    3e2b:	48 8d 4d cf          	lea    -0x31(%rbp),%rcx
    3e2f:	48 8d 55 d8          	lea    -0x28(%rbp),%rdx
    3e33:	48 8b 45 e0          	mov    -0x20(%rbp),%rax
    3e37:	49 89 c8             	mov    %rcx,%r8
    3e3a:	48 89 d1             	mov    %rdx,%rcx
    3e3d:	48 8d 15 c4 61 00 00 	lea    0x61c4(%rip),%rdx        # a008 <_ZStL19piecewise_construct>
    3e44:	48 89 c6             	mov    %rax,%rsi
    3e47:	48 89 df             	mov    %rbx,%rdi
    3e4a:	e8 75 08 00 00       	callq  46c4 <_ZNSt8_Rb_treeINSt7__cxx1112basic_stringIcSt11char_traitsIcESaIcEEESt4pairIKS5_S5_ESt10_Select1stIS8_ESt4lessIS5_ESaIS8_EE22_M_emplace_hint_uniqueIJRKSt21piecewise_construct_tSt5tupleIJOS5_EESJ_IJEEEEESt17_Rb_tree_iteratorIS8_ESt23_Rb_tree_const_iteratorIS8_EDpOT_>
    3e4f:	48 89 45 d0          	mov    %rax,-0x30(%rbp)
/usr/include/c++/9/bits/stl_map.h:521
	return (*__i).second;
    3e53:	48 8d 45 d0          	lea    -0x30(%rbp),%rax
    3e57:	48 89 c7             	mov    %rax,%rdi
    3e5a:	e8 fb 04 00 00       	callq  435a <_ZNKSt17_Rb_tree_iteratorISt4pairIKNSt7__cxx1112basic_stringIcSt11char_traitsIcESaIcEEES6_EEdeEv>
    3e5f:	48 83 c0 20          	add    $0x20,%rax
/usr/include/c++/9/bits/stl_map.h:522
      }
    3e63:	48 8b 5d e8          	mov    -0x18(%rbp),%rbx
    3e67:	64 48 33 1c 25 28 00 	xor    %fs:0x28,%rbx
    3e6e:	00 00 
    3e70:	74 05                	je     3e77 <_ZNSt3mapINSt7__cxx1112basic_stringIcSt11char_traitsIcESaIcEEES5_St4lessIS5_ESaISt4pairIKS5_S5_EEEixEOS5_+0x125>
    3e72:	e8 69 e8 ff ff       	callq  26e0 <__stack_chk_fail@plt>
    3e77:	48 83 c4 48          	add    $0x48,%rsp
    3e7b:	5b                   	pop    %rbx
    3e7c:	5d                   	pop    %rbp
    3e7d:	c3                   	retq   

0000000000003e7e <_ZNSt12_Vector_baseIiSaIiEE12_Vector_implC1Ev>:
_ZNSt12_Vector_baseIiSaIiEE12_Vector_implC2Ev():
/usr/include/c++/9/bits/stl_vector.h:128
	_Vector_impl() _GLIBCXX_NOEXCEPT_IF(
    3e7e:	f3 0f 1e fa          	endbr64 
    3e82:	55                   	push   %rbp
    3e83:	48 89 e5             	mov    %rsp,%rbp
    3e86:	48 83 ec 10          	sub    $0x10,%rsp
    3e8a:	48 89 7d f8          	mov    %rdi,-0x8(%rbp)
/usr/include/c++/9/bits/stl_vector.h:130
	: _Tp_alloc_type()
    3e8e:	48 8b 45 f8          	mov    -0x8(%rbp),%rax
    3e92:	48 89 c7             	mov    %rax,%rdi
    3e95:	e8 70 09 00 00       	callq  480a <_ZNSaIiEC1Ev>
    3e9a:	48 8b 45 f8          	mov    -0x8(%rbp),%rax
    3e9e:	48 89 c7             	mov    %rax,%rdi
    3ea1:	e8 84 09 00 00       	callq  482a <_ZNSt12_Vector_baseIiSaIiEE17_Vector_impl_dataC1Ev>
/usr/include/c++/9/bits/stl_vector.h:131
	{ }
    3ea6:	90                   	nop
    3ea7:	c9                   	leaveq 
    3ea8:	c3                   	retq   
    3ea9:	90                   	nop

0000000000003eaa <_ZNSaIiED1Ev>:
_ZNSaIiED2Ev():
/usr/include/c++/9/bits/allocator.h:152
    3eaa:	f3 0f 1e fa          	endbr64 
    3eae:	55                   	push   %rbp
    3eaf:	48 89 e5             	mov    %rsp,%rbp
    3eb2:	48 83 ec 10          	sub    $0x10,%rsp
    3eb6:	48 89 7d f8          	mov    %rdi,-0x8(%rbp)
    3eba:	48 8b 45 f8          	mov    -0x8(%rbp),%rax
    3ebe:	48 89 c7             	mov    %rax,%rdi
    3ec1:	e8 96 09 00 00       	callq  485c <_ZN9__gnu_cxx13new_allocatorIiED1Ev>
    3ec6:	90                   	nop
    3ec7:	c9                   	leaveq 
    3ec8:	c3                   	retq   
    3ec9:	90                   	nop

0000000000003eca <_ZNSt12_Vector_baseIiSaIiEED1Ev>:
_ZNSt12_Vector_baseIiSaIiEED2Ev():
/usr/include/c++/9/bits/stl_vector.h:330
      ~_Vector_base() _GLIBCXX_NOEXCEPT
    3eca:	f3 0f 1e fa          	endbr64 
    3ece:	55                   	push   %rbp
    3ecf:	48 89 e5             	mov    %rsp,%rbp
    3ed2:	48 83 ec 10          	sub    $0x10,%rsp
    3ed6:	48 89 7d f8          	mov    %rdi,-0x8(%rbp)
/usr/include/c++/9/bits/stl_vector.h:333
		      _M_impl._M_end_of_storage - _M_impl._M_start);
    3eda:	48 8b 45 f8          	mov    -0x8(%rbp),%rax
    3ede:	48 8b 50 10          	mov    0x10(%rax),%rdx
    3ee2:	48 8b 45 f8          	mov    -0x8(%rbp),%rax
    3ee6:	48 8b 00             	mov    (%rax),%rax
    3ee9:	48 29 c2             	sub    %rax,%rdx
    3eec:	48 89 d0             	mov    %rdx,%rax
    3eef:	48 c1 f8 02          	sar    $0x2,%rax
/usr/include/c++/9/bits/stl_vector.h:332
	_M_deallocate(_M_impl._M_start,
    3ef3:	48 89 c2             	mov    %rax,%rdx
    3ef6:	48 8b 45 f8          	mov    -0x8(%rbp),%rax
    3efa:	48 8b 08             	mov    (%rax),%rcx
    3efd:	48 8b 45 f8          	mov    -0x8(%rbp),%rax
    3f01:	48 89 ce             	mov    %rcx,%rsi
    3f04:	48 89 c7             	mov    %rax,%rdi
    3f07:	e8 60 09 00 00       	callq  486c <_ZNSt12_Vector_baseIiSaIiEE13_M_deallocateEPim>
/usr/include/c++/9/bits/stl_vector.h:334
      }
    3f0c:	48 8b 45 f8          	mov    -0x8(%rbp),%rax
    3f10:	48 89 c7             	mov    %rax,%rdi
    3f13:	e8 54 fb ff ff       	callq  3a6c <_ZNSt12_Vector_baseIiSaIiEE12_Vector_implD1Ev>
    3f18:	90                   	nop
    3f19:	c9                   	leaveq 
    3f1a:	c3                   	retq   
_ZNSt12_Vector_baseIiSaIiEED1Ev():
    3f1b:	90                   	nop

0000000000003f1c <_ZNSt6vectorIiSaIiEED1Ev>:
_ZNSt6vectorIiSaIiEED2Ev():
/usr/include/c++/9/bits/stl_vector.h:675
       *  The dtor only erases the elements, and note that if the
       *  elements themselves are pointers, the pointed-to memory is
       *  not touched in any way.  Managing the pointer is the user's
       *  responsibility.
       */
      ~vector() _GLIBCXX_NOEXCEPT
    3f1c:	f3 0f 1e fa          	endbr64 
    3f20:	55                   	push   %rbp
    3f21:	48 89 e5             	mov    %rsp,%rbp
    3f24:	48 83 ec 10          	sub    $0x10,%rsp
    3f28:	48 89 7d f8          	mov    %rdi,-0x8(%rbp)
/usr/include/c++/9/bits/stl_vector.h:678
      {
	std::_Destroy(this->_M_impl._M_start, this->_M_impl._M_finish,
		      _M_get_Tp_allocator());
    3f2c:	48 8b 45 f8          	mov    -0x8(%rbp),%rax
    3f30:	48 89 c7             	mov    %rax,%rdi
    3f33:	e8 6e 09 00 00       	callq  48a6 <_ZNSt12_Vector_baseIiSaIiEE19_M_get_Tp_allocatorEv>
    3f38:	48 89 c2             	mov    %rax,%rdx
/usr/include/c++/9/bits/stl_vector.h:677
	std::_Destroy(this->_M_impl._M_start, this->_M_impl._M_finish,
    3f3b:	48 8b 45 f8          	mov    -0x8(%rbp),%rax
    3f3f:	48 8b 48 08          	mov    0x8(%rax),%rcx
    3f43:	48 8b 45 f8          	mov    -0x8(%rbp),%rax
    3f47:	48 8b 00             	mov    (%rax),%rax
    3f4a:	48 89 ce             	mov    %rcx,%rsi
    3f4d:	48 89 c7             	mov    %rax,%rdi
    3f50:	e8 63 09 00 00       	callq  48b8 <_ZSt8_DestroyIPiiEvT_S1_RSaIT0_E>
/usr/include/c++/9/bits/stl_vector.h:680
	_GLIBCXX_ASAN_ANNOTATE_BEFORE_DEALLOC;
      }
    3f55:	48 8b 45 f8          	mov    -0x8(%rbp),%rax
    3f59:	48 89 c7             	mov    %rax,%rdi
    3f5c:	e8 69 ff ff ff       	callq  3eca <_ZNSt12_Vector_baseIiSaIiEED1Ev>
    3f61:	90                   	nop
    3f62:	c9                   	leaveq 
    3f63:	c3                   	retq   

0000000000003f64 <_ZNSt6vectorIiSaIiEE9push_backERKi>:
_ZNSt6vectorIiSaIiEE9push_backERKi():
/usr/include/c++/9/bits/stl_vector.h:1184
       *  to it.  Due to the nature of a %vector this operation can be
       *  done in constant time if the %vector has preallocated space
       *  available.
       */
      void
      push_back(const value_type& __x)
    3f64:	f3 0f 1e fa          	endbr64 
    3f68:	55                   	push   %rbp
    3f69:	48 89 e5             	mov    %rsp,%rbp
    3f6c:	48 83 ec 10          	sub    $0x10,%rsp
    3f70:	48 89 7d f8          	mov    %rdi,-0x8(%rbp)
    3f74:	48 89 75 f0          	mov    %rsi,-0x10(%rbp)
/usr/include/c++/9/bits/stl_vector.h:1186
      {
	if (this->_M_impl._M_finish != this->_M_impl._M_end_of_storage)
    3f78:	48 8b 45 f8          	mov    -0x8(%rbp),%rax
    3f7c:	48 8b 50 08          	mov    0x8(%rax),%rdx
    3f80:	48 8b 45 f8          	mov    -0x8(%rbp),%rax
    3f84:	48 8b 40 10          	mov    0x10(%rax),%rax
    3f88:	48 39 c2             	cmp    %rax,%rdx
    3f8b:	74 31                	je     3fbe <_ZNSt6vectorIiSaIiEE9push_backERKi+0x5a>
/usr/include/c++/9/bits/stl_vector.h:1189
	  {
	    _GLIBCXX_ASAN_ANNOTATE_GROW(1);
	    _Alloc_traits::construct(this->_M_impl, this->_M_impl._M_finish,
    3f8d:	48 8b 45 f8          	mov    -0x8(%rbp),%rax
    3f91:	48 8b 48 08          	mov    0x8(%rax),%rcx
    3f95:	48 8b 45 f8          	mov    -0x8(%rbp),%rax
    3f99:	48 8b 55 f0          	mov    -0x10(%rbp),%rdx
    3f9d:	48 89 ce             	mov    %rcx,%rsi
    3fa0:	48 89 c7             	mov    %rax,%rdi
    3fa3:	e8 3e 09 00 00       	callq  48e6 <_ZNSt16allocator_traitsISaIiEE9constructIiJRKiEEEvRS0_PT_DpOT0_>
/usr/include/c++/9/bits/stl_vector.h:1191
				     __x);
	    ++this->_M_impl._M_finish;
    3fa8:	48 8b 45 f8          	mov    -0x8(%rbp),%rax
    3fac:	48 8b 40 08          	mov    0x8(%rax),%rax
    3fb0:	48 8d 50 04          	lea    0x4(%rax),%rdx
    3fb4:	48 8b 45 f8          	mov    -0x8(%rbp),%rax
    3fb8:	48 89 50 08          	mov    %rdx,0x8(%rax)
/usr/include/c++/9/bits/stl_vector.h:1196
	    _GLIBCXX_ASAN_ANNOTATE_GREW(1);
	  }
	else
	  _M_realloc_insert(end(), __x);
      }
    3fbc:	eb 22                	jmp    3fe0 <_ZNSt6vectorIiSaIiEE9push_backERKi+0x7c>
/usr/include/c++/9/bits/stl_vector.h:1195
	  _M_realloc_insert(end(), __x);
    3fbe:	48 8b 45 f8          	mov    -0x8(%rbp),%rax
    3fc2:	48 89 c7             	mov    %rax,%rdi
    3fc5:	e8 5a 09 00 00       	callq  4924 <_ZNSt6vectorIiSaIiEE3endEv>
    3fca:	48 89 c1             	mov    %rax,%rcx
    3fcd:	48 8b 55 f0          	mov    -0x10(%rbp),%rdx
    3fd1:	48 8b 45 f8          	mov    -0x8(%rbp),%rax
    3fd5:	48 89 ce             	mov    %rcx,%rsi
    3fd8:	48 89 c7             	mov    %rax,%rdi
    3fdb:	e8 da 09 00 00       	callq  49ba <_ZNSt6vectorIiSaIiEE17_M_realloc_insertIJRKiEEEvN9__gnu_cxx17__normal_iteratorIPiS1_EEDpOT_>
/usr/include/c++/9/bits/stl_vector.h:1196
      }
    3fe0:	90                   	nop
    3fe1:	c9                   	leaveq 
    3fe2:	c3                   	retq   
    3fe3:	90                   	nop

0000000000003fe4 <_ZNSaIPKcEC1Ev>:
_ZNSaIPKcEC2Ev():
/usr/include/c++/9/bits/allocator.h:137
      allocator() _GLIBCXX_NOTHROW { }
    3fe4:	f3 0f 1e fa          	endbr64 
    3fe8:	55                   	push   %rbp
    3fe9:	48 89 e5             	mov    %rsp,%rbp
    3fec:	48 83 ec 10          	sub    $0x10,%rsp
    3ff0:	48 89 7d f8          	mov    %rdi,-0x8(%rbp)
    3ff4:	48 8b 45 f8          	mov    -0x8(%rbp),%rax
    3ff8:	48 89 c7             	mov    %rax,%rdi
    3ffb:	e8 b2 0c 00 00       	callq  4cb2 <_ZN9__gnu_cxx13new_allocatorIPKcEC1Ev>
    4000:	90                   	nop
    4001:	c9                   	leaveq 
    4002:	c3                   	retq   
_ZNSaIPKcEC1Ev():
    4003:	90                   	nop

0000000000004004 <_ZNSaIPKcED1Ev>:
_ZNSaIPKcED2Ev():
/usr/include/c++/9/bits/allocator.h:152
      ~allocator() _GLIBCXX_NOTHROW { }
    4004:	f3 0f 1e fa          	endbr64 
    4008:	55                   	push   %rbp
    4009:	48 89 e5             	mov    %rsp,%rbp
    400c:	48 83 ec 10          	sub    $0x10,%rsp
    4010:	48 89 7d f8          	mov    %rdi,-0x8(%rbp)
    4014:	48 8b 45 f8          	mov    -0x8(%rbp),%rax
    4018:	48 89 c7             	mov    %rax,%rdi
    401b:	e8 a2 0c 00 00       	callq  4cc2 <_ZN9__gnu_cxx13new_allocatorIPKcED1Ev>
    4020:	90                   	nop
    4021:	c9                   	leaveq 
    4022:	c3                   	retq   
    4023:	90                   	nop

0000000000004024 <_ZNSt6vectorIPKcSaIS1_EEC1ESt16initializer_listIS1_ERKS2_>:
_ZNSt6vectorIPKcSaIS1_EEC2ESt16initializer_listIS1_ERKS2_():
/usr/include/c++/9/bits/stl_vector.h:622
      vector(initializer_list<value_type> __l,
    4024:	f3 0f 1e fa          	endbr64 
    4028:	55                   	push   %rbp
    4029:	48 89 e5             	mov    %rsp,%rbp
    402c:	53                   	push   %rbx
    402d:	48 83 ec 38          	sub    $0x38,%rsp
    4031:	48 89 7d d8          	mov    %rdi,-0x28(%rbp)
    4035:	48 89 f0             	mov    %rsi,%rax
    4038:	48 89 d6             	mov    %rdx,%rsi
    403b:	48 89 f2             	mov    %rsi,%rdx
    403e:	48 89 45 c0          	mov    %rax,-0x40(%rbp)
    4042:	48 89 55 c8          	mov    %rdx,-0x38(%rbp)
    4046:	48 89 4d d0          	mov    %rcx,-0x30(%rbp)
    404a:	64 48 8b 04 25 28 00 	mov    %fs:0x28,%rax
    4051:	00 00 
    4053:	48 89 45 e8          	mov    %rax,-0x18(%rbp)
    4057:	31 c0                	xor    %eax,%eax
/usr/include/c++/9/bits/stl_vector.h:624
      : _Base(__a)
    4059:	48 8b 45 d8          	mov    -0x28(%rbp),%rax
    405d:	48 8b 55 d0          	mov    -0x30(%rbp),%rdx
    4061:	48 89 d6             	mov    %rdx,%rsi
    4064:	48 89 c7             	mov    %rax,%rdi
    4067:	e8 86 0c 00 00       	callq  4cf2 <_ZNSt12_Vector_baseIPKcSaIS1_EEC1ERKS2_>
/usr/include/c++/9/bits/stl_vector.h:626
	_M_range_initialize(__l.begin(), __l.end(),
    406c:	48 8d 45 c0          	lea    -0x40(%rbp),%rax
    4070:	48 89 c7             	mov    %rax,%rdi
    4073:	e8 0c 0d 00 00       	callq  4d84 <_ZNKSt16initializer_listIPKcE3endEv>
    4078:	48 89 c3             	mov    %rax,%rbx
    407b:	48 8d 45 c0          	lea    -0x40(%rbp),%rax
    407f:	48 89 c7             	mov    %rax,%rdi
    4082:	e8 e7 0c 00 00       	callq  4d6e <_ZNKSt16initializer_listIPKcE5beginEv>
    4087:	48 89 c1             	mov    %rax,%rcx
    408a:	48 8b 45 d8          	mov    -0x28(%rbp),%rax
    408e:	48 89 da             	mov    %rbx,%rdx
    4091:	48 89 ce             	mov    %rcx,%rsi
    4094:	48 89 c7             	mov    %rax,%rdi
    4097:	e8 22 0d 00 00       	callq  4dbe <_ZNSt6vectorIPKcSaIS1_EE19_M_range_initializeIPKS1_EEvT_S7_St20forward_iterator_tag>
/usr/include/c++/9/bits/stl_vector.h:628
      }
    409c:	eb 1e                	jmp    40bc <_ZNSt6vectorIPKcSaIS1_EEC1ESt16initializer_listIS1_ERKS2_+0x98>
    409e:	f3 0f 1e fa          	endbr64 
    40a2:	48 89 c3             	mov    %rax,%rbx
/usr/include/c++/9/bits/stl_vector.h:624
      : _Base(__a)
    40a5:	48 8b 45 d8          	mov    -0x28(%rbp),%rax
    40a9:	48 89 c7             	mov    %rax,%rdi
    40ac:	e8 6b 0c 00 00       	callq  4d1c <_ZNSt12_Vector_baseIPKcSaIS1_EED1Ev>
    40b1:	48 89 d8             	mov    %rbx,%rax
    40b4:	48 89 c7             	mov    %rax,%rdi
    40b7:	e8 a4 e7 ff ff       	callq  2860 <_Unwind_Resume@plt>
/usr/include/c++/9/bits/stl_vector.h:628
      }
    40bc:	48 8b 45 e8          	mov    -0x18(%rbp),%rax
    40c0:	64 48 33 04 25 28 00 	xor    %fs:0x28,%rax
    40c7:	00 00 
    40c9:	74 05                	je     40d0 <_ZNSt6vectorIPKcSaIS1_EEC1ESt16initializer_listIS1_ERKS2_+0xac>
    40cb:	e8 10 e6 ff ff       	callq  26e0 <__stack_chk_fail@plt>
    40d0:	48 83 c4 38          	add    $0x38,%rsp
    40d4:	5b                   	pop    %rbx
    40d5:	5d                   	pop    %rbp
    40d6:	c3                   	retq   
    40d7:	90                   	nop

00000000000040d8 <_ZNSt6vectorIPKcSaIS1_EED1Ev>:
_ZNSt6vectorIPKcSaIS1_EED2Ev():
/usr/include/c++/9/bits/stl_vector.h:675
      ~vector() _GLIBCXX_NOEXCEPT
    40d8:	f3 0f 1e fa          	endbr64 
    40dc:	55                   	push   %rbp
    40dd:	48 89 e5             	mov    %rsp,%rbp
    40e0:	48 83 ec 10          	sub    $0x10,%rsp
    40e4:	48 89 7d f8          	mov    %rdi,-0x8(%rbp)
/usr/include/c++/9/bits/stl_vector.h:678
		      _M_get_Tp_allocator());
    40e8:	48 8b 45 f8          	mov    -0x8(%rbp),%rax
    40ec:	48 89 c7             	mov    %rax,%rdi
    40ef:	e8 7e 0d 00 00       	callq  4e72 <_ZNSt12_Vector_baseIPKcSaIS1_EE19_M_get_Tp_allocatorEv>
    40f4:	48 89 c2             	mov    %rax,%rdx
/usr/include/c++/9/bits/stl_vector.h:677
	std::_Destroy(this->_M_impl._M_start, this->_M_impl._M_finish,
    40f7:	48 8b 45 f8          	mov    -0x8(%rbp),%rax
    40fb:	48 8b 48 08          	mov    0x8(%rax),%rcx
    40ff:	48 8b 45 f8          	mov    -0x8(%rbp),%rax
    4103:	48 8b 00             	mov    (%rax),%rax
    4106:	48 89 ce             	mov    %rcx,%rsi
    4109:	48 89 c7             	mov    %rax,%rdi
    410c:	e8 73 0d 00 00       	callq  4e84 <_ZSt8_DestroyIPPKcS1_EvT_S3_RSaIT0_E>
/usr/include/c++/9/bits/stl_vector.h:680
      }
    4111:	48 8b 45 f8          	mov    -0x8(%rbp),%rax
    4115:	48 89 c7             	mov    %rax,%rdi
    4118:	e8 ff 0b 00 00       	callq  4d1c <_ZNSt12_Vector_baseIPKcSaIS1_EED1Ev>
    411d:	90                   	nop
    411e:	c9                   	leaveq 
    411f:	c3                   	retq   

0000000000004120 <_ZNSt6vectorIiSaIiEEixEm>:
_ZNSt6vectorIiSaIiEEixEm():
/usr/include/c++/9/bits/stl_vector.h:1040
      operator[](size_type __n) _GLIBCXX_NOEXCEPT
    4120:	f3 0f 1e fa          	endbr64 
    4124:	55                   	push   %rbp
    4125:	48 89 e5             	mov    %rsp,%rbp
    4128:	48 89 7d f8          	mov    %rdi,-0x8(%rbp)
    412c:	48 89 75 f0          	mov    %rsi,-0x10(%rbp)
/usr/include/c++/9/bits/stl_vector.h:1043
	return *(this->_M_impl._M_start + __n);
    4130:	48 8b 45 f8          	mov    -0x8(%rbp),%rax
    4134:	48 8b 00             	mov    (%rax),%rax
    4137:	48 8b 55 f0          	mov    -0x10(%rbp),%rdx
    413b:	48 c1 e2 02          	shl    $0x2,%rdx
    413f:	48 01 d0             	add    %rdx,%rax
/usr/include/c++/9/bits/stl_vector.h:1044
      }
    4142:	5d                   	pop    %rbp
    4143:	c3                   	retq   

0000000000004144 <_ZNKSt6vectorIiSaIiEE4sizeEv>:
_ZNKSt6vectorIiSaIiEE4sizeEv():
/usr/include/c++/9/bits/stl_vector.h:915
      size() const _GLIBCXX_NOEXCEPT
    4144:	f3 0f 1e fa          	endbr64 
    4148:	55                   	push   %rbp
    4149:	48 89 e5             	mov    %rsp,%rbp
    414c:	48 89 7d f8          	mov    %rdi,-0x8(%rbp)
/usr/include/c++/9/bits/stl_vector.h:916
      { return size_type(this->_M_impl._M_finish - this->_M_impl._M_start); }
    4150:	48 8b 45 f8          	mov    -0x8(%rbp),%rax
    4154:	48 8b 50 08          	mov    0x8(%rax),%rdx
    4158:	48 8b 45 f8          	mov    -0x8(%rbp),%rax
    415c:	48 8b 00             	mov    (%rax),%rax
    415f:	48 29 c2             	sub    %rax,%rdx
    4162:	48 89 d0             	mov    %rdx,%rax
    4165:	48 c1 f8 02          	sar    $0x2,%rax
    4169:	5d                   	pop    %rbp
    416a:	c3                   	retq   
    416b:	90                   	nop

000000000000416c <_ZNSt6vectorIPKcSaIS1_EE4dataEv>:
_ZNSt6vectorIPKcSaIS1_EE4dataEv():
/usr/include/c++/9/bits/stl_vector.h:1165
      data() _GLIBCXX_NOEXCEPT
    416c:	f3 0f 1e fa          	endbr64 
    4170:	55                   	push   %rbp
    4171:	48 89 e5             	mov    %rsp,%rbp
    4174:	48 83 ec 10          	sub    $0x10,%rsp
    4178:	48 89 7d f8          	mov    %rdi,-0x8(%rbp)
/usr/include/c++/9/bits/stl_vector.h:1166
      { return _M_data_ptr(this->_M_impl._M_start); }
    417c:	48 8b 45 f8          	mov    -0x8(%rbp),%rax
    4180:	48 8b 10             	mov    (%rax),%rdx
    4183:	48 8b 45 f8          	mov    -0x8(%rbp),%rax
    4187:	48 89 d6             	mov    %rdx,%rsi
    418a:	48 89 c7             	mov    %rax,%rdi
    418d:	e8 20 0d 00 00       	callq  4eb2 <_ZNKSt6vectorIPKcSaIS1_EE11_M_data_ptrIS1_EEPT_S6_>
    4192:	c9                   	leaveq 
    4193:	c3                   	retq   

0000000000004194 <_ZNSt6vectorIPKcSaIS1_EEC1EmRKS2_>:
_ZNSt6vectorIPKcSaIS1_EEC2EmRKS2_():
/usr/include/c++/9/bits/stl_vector.h:507
      vector(size_type __n, const allocator_type& __a = allocator_type())
    4194:	f3 0f 1e fa          	endbr64 
    4198:	55                   	push   %rbp
    4199:	48 89 e5             	mov    %rsp,%rbp
    419c:	53                   	push   %rbx
    419d:	48 83 ec 28          	sub    $0x28,%rsp
    41a1:	48 89 7d e8          	mov    %rdi,-0x18(%rbp)
    41a5:	48 89 75 e0          	mov    %rsi,-0x20(%rbp)
    41a9:	48 89 55 d8          	mov    %rdx,-0x28(%rbp)
/usr/include/c++/9/bits/stl_vector.h:508
      : _Base(_S_check_init_len(__n, __a), __a)
    41ad:	48 8b 5d e8          	mov    -0x18(%rbp),%rbx
    41b1:	48 8b 55 d8          	mov    -0x28(%rbp),%rdx
    41b5:	48 8b 45 e0          	mov    -0x20(%rbp),%rax
    41b9:	48 89 d6             	mov    %rdx,%rsi
    41bc:	48 89 c7             	mov    %rax,%rdi
    41bf:	e8 04 0d 00 00       	callq  4ec8 <_ZNSt6vectorIPKcSaIS1_EE17_S_check_init_lenEmRKS2_>
    41c4:	48 89 c1             	mov    %rax,%rcx
    41c7:	48 8b 45 d8          	mov    -0x28(%rbp),%rax
    41cb:	48 89 c2             	mov    %rax,%rdx
    41ce:	48 89 ce             	mov    %rcx,%rsi
    41d1:	48 89 df             	mov    %rbx,%rdi
    41d4:	e8 75 0d 00 00       	callq  4f4e <_ZNSt12_Vector_baseIPKcSaIS1_EEC1EmRKS2_>
/usr/include/c++/9/bits/stl_vector.h:509
      { _M_default_initialize(__n); }
    41d9:	48 8b 55 e0          	mov    -0x20(%rbp),%rdx
    41dd:	48 8b 45 e8          	mov    -0x18(%rbp),%rax
    41e1:	48 89 d6             	mov    %rdx,%rsi
    41e4:	48 89 c7             	mov    %rax,%rdi
    41e7:	e8 c8 0d 00 00       	callq  4fb4 <_ZNSt6vectorIPKcSaIS1_EE21_M_default_initializeEm>
    41ec:	eb 1e                	jmp    420c <_ZNSt6vectorIPKcSaIS1_EEC1EmRKS2_+0x78>
    41ee:	f3 0f 1e fa          	endbr64 
    41f2:	48 89 c3             	mov    %rax,%rbx
/usr/include/c++/9/bits/stl_vector.h:508
      : _Base(_S_check_init_len(__n, __a), __a)
    41f5:	48 8b 45 e8          	mov    -0x18(%rbp),%rax
    41f9:	48 89 c7             	mov    %rax,%rdi
    41fc:	e8 1b 0b 00 00       	callq  4d1c <_ZNSt12_Vector_baseIPKcSaIS1_EED1Ev>
    4201:	48 89 d8             	mov    %rbx,%rax
    4204:	48 89 c7             	mov    %rax,%rdi
    4207:	e8 54 e6 ff ff       	callq  2860 <_Unwind_Resume@plt>
/usr/include/c++/9/bits/stl_vector.h:509
      { _M_default_initialize(__n); }
    420c:	48 83 c4 28          	add    $0x28,%rsp
    4210:	5b                   	pop    %rbx
    4211:	5d                   	pop    %rbp
    4212:	c3                   	retq   
_ZNSt6vectorIPKcSaIS1_EEC1EmRKS2_():
    4213:	90                   	nop

0000000000004214 <_ZNSt6vectorIPKcSaIS1_EEixEm>:
_ZNSt6vectorIPKcSaIS1_EEixEm():
/usr/include/c++/9/bits/stl_vector.h:1040
      operator[](size_type __n) _GLIBCXX_NOEXCEPT
    4214:	f3 0f 1e fa          	endbr64 
    4218:	55                   	push   %rbp
    4219:	48 89 e5             	mov    %rsp,%rbp
    421c:	48 89 7d f8          	mov    %rdi,-0x8(%rbp)
    4220:	48 89 75 f0          	mov    %rsi,-0x10(%rbp)
/usr/include/c++/9/bits/stl_vector.h:1043
	return *(this->_M_impl._M_start + __n);
    4224:	48 8b 45 f8          	mov    -0x8(%rbp),%rax
    4228:	48 8b 00             	mov    (%rax),%rax
    422b:	48 8b 55 f0          	mov    -0x10(%rbp),%rdx
    422f:	48 c1 e2 03          	shl    $0x3,%rdx
    4233:	48 01 d0             	add    %rdx,%rax
/usr/include/c++/9/bits/stl_vector.h:1044
      }
    4236:	5d                   	pop    %rbp
    4237:	c3                   	retq   

0000000000004238 <_ZSt4moveIRNSt7__cxx1112basic_stringIcSt11char_traitsIcESaIcEEEEONSt16remove_referenceIT_E4typeEOS8_>:
_ZSt4moveIRNSt7__cxx1112basic_stringIcSt11char_traitsIcESaIcEEEEONSt16remove_referenceIT_E4typeEOS8_():
/usr/include/c++/9/bits/move.h:99
   *  @param  __t  A thing of arbitrary type.
   *  @return The parameter cast to an rvalue-reference to allow moving it.
  */
  template<typename _Tp>
    constexpr typename std::remove_reference<_Tp>::type&&
    move(_Tp&& __t) noexcept
    4238:	f3 0f 1e fa          	endbr64 
    423c:	55                   	push   %rbp
    423d:	48 89 e5             	mov    %rsp,%rbp
    4240:	48 89 7d f8          	mov    %rdi,-0x8(%rbp)
/usr/include/c++/9/bits/move.h:100
    { return static_cast<typename std::remove_reference<_Tp>::type&&>(__t); }
    4244:	48 8b 45 f8          	mov    -0x8(%rbp),%rax
    4248:	5d                   	pop    %rbp
    4249:	c3                   	retq   

000000000000424a <_ZNSaISt13_Rb_tree_nodeISt4pairIKNSt7__cxx1112basic_stringIcSt11char_traitsIcESaIcEEES6_EEEC1Ev>:
_ZNSaISt13_Rb_tree_nodeISt4pairIKNSt7__cxx1112basic_stringIcSt11char_traitsIcESaIcEEES6_EEEC2Ev():
/usr/include/c++/9/bits/allocator.h:137
      allocator() _GLIBCXX_NOTHROW { }
    424a:	f3 0f 1e fa          	endbr64 
    424e:	55                   	push   %rbp
    424f:	48 89 e5             	mov    %rsp,%rbp
    4252:	48 83 ec 10          	sub    $0x10,%rsp
    4256:	48 89 7d f8          	mov    %rdi,-0x8(%rbp)
    425a:	48 8b 45 f8          	mov    -0x8(%rbp),%rax
    425e:	48 89 c7             	mov    %rax,%rdi
    4261:	e8 92 0d 00 00       	callq  4ff8 <_ZN9__gnu_cxx13new_allocatorISt13_Rb_tree_nodeISt4pairIKNSt7__cxx1112basic_stringIcSt11char_traitsIcESaIcEEES8_EEEC1Ev>
    4266:	90                   	nop
    4267:	c9                   	leaveq 
    4268:	c3                   	retq   
_ZNSaISt13_Rb_tree_nodeISt4pairIKNSt7__cxx1112basic_stringIcSt11char_traitsIcESaIcEEES6_EEEC1Ev():
    4269:	90                   	nop

000000000000426a <_ZNSt20_Rb_tree_key_compareISt4lessINSt7__cxx1112basic_stringIcSt11char_traitsIcESaIcEEEEEC1Ev>:
_ZNSt20_Rb_tree_key_compareISt4lessINSt7__cxx1112basic_stringIcSt11char_traitsIcESaIcEEEEEC2Ev():
/usr/include/c++/9/bits/stl_tree.h:146
      _Rb_tree_key_compare()
    426a:	f3 0f 1e fa          	endbr64 
    426e:	55                   	push   %rbp
    426f:	48 89 e5             	mov    %rsp,%rbp
    4272:	48 89 7d f8          	mov    %rdi,-0x8(%rbp)
/usr/include/c++/9/bits/stl_tree.h:150
      { }
    4276:	90                   	nop
    4277:	5d                   	pop    %rbp
    4278:	c3                   	retq   
_ZNSt20_Rb_tree_key_compareISt4lessINSt7__cxx1112basic_stringIcSt11char_traitsIcESaIcEEEEEC1Ev():
    4279:	90                   	nop

000000000000427a <_ZN9__gnu_cxx13new_allocatorISt13_Rb_tree_nodeISt4pairIKNSt7__cxx1112basic_stringIcSt11char_traitsIcESaIcEEES8_EEED1Ev>:
_ZN9__gnu_cxx13new_allocatorISt13_Rb_tree_nodeISt4pairIKNSt7__cxx1112basic_stringIcSt11char_traitsIcESaIcEEES8_EEED2Ev():
/usr/include/c++/9/ext/new_allocator.h:89

      template<typename _Tp1>
	_GLIBCXX20_CONSTEXPR
	new_allocator(const new_allocator<_Tp1>&) _GLIBCXX_USE_NOEXCEPT { }

      ~new_allocator() _GLIBCXX_USE_NOEXCEPT { }
    427a:	f3 0f 1e fa          	endbr64 
    427e:	55                   	push   %rbp
    427f:	48 89 e5             	mov    %rsp,%rbp
    4282:	48 89 7d f8          	mov    %rdi,-0x8(%rbp)
    4286:	90                   	nop
    4287:	5d                   	pop    %rbp
    4288:	c3                   	retq   
    4289:	90                   	nop

000000000000428a <_ZNSt8_Rb_treeINSt7__cxx1112basic_stringIcSt11char_traitsIcESaIcEEESt4pairIKS5_S5_ESt10_Select1stIS8_ESt4lessIS5_ESaIS8_EE8_M_eraseEPSt13_Rb_tree_nodeIS8_E>:
_ZNSt8_Rb_treeINSt7__cxx1112basic_stringIcSt11char_traitsIcESaIcEEESt4pairIKS5_S5_ESt10_Select1stIS8_ESt4lessIS5_ESaIS8_EE8_M_eraseEPSt13_Rb_tree_nodeIS8_E():
/usr/include/c++/9/bits/stl_tree.h:1912
      }

  template<typename _Key, typename _Val, typename _KeyOfValue,
	   typename _Compare, typename _Alloc>
    void
    _Rb_tree<_Key, _Val, _KeyOfValue, _Compare, _Alloc>::
    428a:	f3 0f 1e fa          	endbr64 
    428e:	55                   	push   %rbp
    428f:	48 89 e5             	mov    %rsp,%rbp
    4292:	48 83 ec 20          	sub    $0x20,%rsp
    4296:	48 89 7d e8          	mov    %rdi,-0x18(%rbp)
    429a:	48 89 75 e0          	mov    %rsi,-0x20(%rbp)
/usr/include/c++/9/bits/stl_tree.h:1916
    _M_erase(_Link_type __x)
    {
      // Erase without rebalancing.
      while (__x != 0)
    429e:	48 83 7d e0 00       	cmpq   $0x0,-0x20(%rbp)
    42a3:	74 4b                	je     42f0 <_ZNSt8_Rb_treeINSt7__cxx1112basic_stringIcSt11char_traitsIcESaIcEEESt4pairIKS5_S5_ESt10_Select1stIS8_ESt4lessIS5_ESaIS8_EE8_M_eraseEPSt13_Rb_tree_nodeIS8_E+0x66>
/usr/include/c++/9/bits/stl_tree.h:1918
	{
	  _M_erase(_S_right(__x));
    42a5:	48 8b 45 e0          	mov    -0x20(%rbp),%rax
    42a9:	48 89 c7             	mov    %rax,%rdi
    42ac:	e8 56 0d 00 00       	callq  5007 <_ZNSt8_Rb_treeINSt7__cxx1112basic_stringIcSt11char_traitsIcESaIcEEESt4pairIKS5_S5_ESt10_Select1stIS8_ESt4lessIS5_ESaIS8_EE8_S_rightEPSt18_Rb_tree_node_base>
    42b1:	48 89 c2             	mov    %rax,%rdx
    42b4:	48 8b 45 e8          	mov    -0x18(%rbp),%rax
    42b8:	48 89 d6             	mov    %rdx,%rsi
    42bb:	48 89 c7             	mov    %rax,%rdi
    42be:	e8 c7 ff ff ff       	callq  428a <_ZNSt8_Rb_treeINSt7__cxx1112basic_stringIcSt11char_traitsIcESaIcEEESt4pairIKS5_S5_ESt10_Select1stIS8_ESt4lessIS5_ESaIS8_EE8_M_eraseEPSt13_Rb_tree_nodeIS8_E>
/usr/include/c++/9/bits/stl_tree.h:1919
	  _Link_type __y = _S_left(__x);
    42c3:	48 8b 45 e0          	mov    -0x20(%rbp),%rax
    42c7:	48 89 c7             	mov    %rax,%rdi
    42ca:	e8 4e 0d 00 00       	callq  501d <_ZNSt8_Rb_treeINSt7__cxx1112basic_stringIcSt11char_traitsIcESaIcEEESt4pairIKS5_S5_ESt10_Select1stIS8_ESt4lessIS5_ESaIS8_EE7_S_leftEPSt18_Rb_tree_node_base>
    42cf:	48 89 45 f8          	mov    %rax,-0x8(%rbp)
/usr/include/c++/9/bits/stl_tree.h:1920
	  _M_drop_node(__x);
    42d3:	48 8b 55 e0          	mov    -0x20(%rbp),%rdx
    42d7:	48 8b 45 e8          	mov    -0x18(%rbp),%rax
    42db:	48 89 d6             	mov    %rdx,%rsi
    42de:	48 89 c7             	mov    %rax,%rdi
    42e1:	e8 4e 0d 00 00       	callq  5034 <_ZNSt8_Rb_treeINSt7__cxx1112basic_stringIcSt11char_traitsIcESaIcEEESt4pairIKS5_S5_ESt10_Select1stIS8_ESt4lessIS5_ESaIS8_EE12_M_drop_nodeEPSt13_Rb_tree_nodeIS8_E>
/usr/include/c++/9/bits/stl_tree.h:1921
	  __x = __y;
    42e6:	48 8b 45 f8          	mov    -0x8(%rbp),%rax
    42ea:	48 89 45 e0          	mov    %rax,-0x20(%rbp)
/usr/include/c++/9/bits/stl_tree.h:1916
      while (__x != 0)
    42ee:	eb ae                	jmp    429e <_ZNSt8_Rb_treeINSt7__cxx1112basic_stringIcSt11char_traitsIcESaIcEEESt4pairIKS5_S5_ESt10_Select1stIS8_ESt4lessIS5_ESaIS8_EE8_M_eraseEPSt13_Rb_tree_nodeIS8_E+0x14>
/usr/include/c++/9/bits/stl_tree.h:1923
	}
    }
    42f0:	90                   	nop
    42f1:	c9                   	leaveq 
    42f2:	c3                   	retq   
    42f3:	90                   	nop

00000000000042f4 <_ZNSt8_Rb_treeINSt7__cxx1112basic_stringIcSt11char_traitsIcESaIcEEESt4pairIKS5_S5_ESt10_Select1stIS8_ESt4lessIS5_ESaIS8_EE8_M_beginEv>:
_ZNSt8_Rb_treeINSt7__cxx1112basic_stringIcSt11char_traitsIcESaIcEEESt4pairIKS5_S5_ESt10_Select1stIS8_ESt4lessIS5_ESaIS8_EE8_M_beginEv():
/usr/include/c++/9/bits/stl_tree.h:749
      _M_begin() _GLIBCXX_NOEXCEPT
    42f4:	f3 0f 1e fa          	endbr64 
    42f8:	55                   	push   %rbp
    42f9:	48 89 e5             	mov    %rsp,%rbp
    42fc:	48 89 7d f8          	mov    %rdi,-0x8(%rbp)
/usr/include/c++/9/bits/stl_tree.h:750
      { return static_cast<_Link_type>(this->_M_impl._M_header._M_parent); }
    4300:	48 8b 45 f8          	mov    -0x8(%rbp),%rax
    4304:	48 8b 40 10          	mov    0x10(%rax),%rax
    4308:	5d                   	pop    %rbp
    4309:	c3                   	retq   

000000000000430a <_ZNSt3mapINSt7__cxx1112basic_stringIcSt11char_traitsIcESaIcEEES5_St4lessIS5_ESaISt4pairIKS5_S5_EEE11lower_boundERS9_>:
_ZNSt3mapINSt7__cxx1112basic_stringIcSt11char_traitsIcESaIcEEES5_St4lessIS5_ESaISt4pairIKS5_S5_EEE11lower_boundERS9_():
/usr/include/c++/9/bits/stl_map.h:1257
       *  that matches the given key.  If unsuccessful it returns an iterator
       *  pointing to the first element that has a greater value than given key
       *  or end() if no such element exists.
       */
      iterator
      lower_bound(const key_type& __x)
    430a:	f3 0f 1e fa          	endbr64 
    430e:	55                   	push   %rbp
    430f:	48 89 e5             	mov    %rsp,%rbp
    4312:	48 83 ec 10          	sub    $0x10,%rsp
    4316:	48 89 7d f8          	mov    %rdi,-0x8(%rbp)
    431a:	48 89 75 f0          	mov    %rsi,-0x10(%rbp)
/usr/include/c++/9/bits/stl_map.h:1258
      { return _M_t.lower_bound(__x); }
    431e:	48 8b 45 f8          	mov    -0x8(%rbp),%rax
    4322:	48 8b 55 f0          	mov    -0x10(%rbp),%rdx
    4326:	48 89 d6             	mov    %rdx,%rsi
    4329:	48 89 c7             	mov    %rax,%rdi
    432c:	e8 41 0d 00 00       	callq  5072 <_ZNSt8_Rb_treeINSt7__cxx1112basic_stringIcSt11char_traitsIcESaIcEEESt4pairIKS5_S5_ESt10_Select1stIS8_ESt4lessIS5_ESaIS8_EE11lower_boundERS7_>
    4331:	c9                   	leaveq 
    4332:	c3                   	retq   
    4333:	90                   	nop

0000000000004334 <_ZNKSt3mapINSt7__cxx1112basic_stringIcSt11char_traitsIcESaIcEEES5_St4lessIS5_ESaISt4pairIKS5_S5_EEE8key_compEv>:
_ZNKSt3mapINSt7__cxx1112basic_stringIcSt11char_traitsIcESaIcEEES5_St4lessIS5_ESaISt4pairIKS5_S5_EEE8key_compEv():
/usr/include/c++/9/bits/stl_map.h:1141
      key_comp() const
    4334:	f3 0f 1e fa          	endbr64 
    4338:	55                   	push   %rbp
    4339:	48 89 e5             	mov    %rsp,%rbp
    433c:	53                   	push   %rbx
    433d:	48 83 ec 18          	sub    $0x18,%rsp
    4341:	48 89 7d e8          	mov    %rdi,-0x18(%rbp)
/usr/include/c++/9/bits/stl_map.h:1142
      { return _M_t.key_comp(); }
    4345:	48 8b 45 e8          	mov    -0x18(%rbp),%rax
    4349:	48 89 c7             	mov    %rax,%rdi
    434c:	e8 71 0d 00 00       	callq  50c2 <_ZNKSt8_Rb_treeINSt7__cxx1112basic_stringIcSt11char_traitsIcESaIcEEESt4pairIKS5_S5_ESt10_Select1stIS8_ESt4lessIS5_ESaIS8_EE8key_compEv>
    4351:	89 d8                	mov    %ebx,%eax
    4353:	48 83 c4 18          	add    $0x18,%rsp
    4357:	5b                   	pop    %rbx
    4358:	5d                   	pop    %rbp
    4359:	c3                   	retq   

000000000000435a <_ZNKSt17_Rb_tree_iteratorISt4pairIKNSt7__cxx1112basic_stringIcSt11char_traitsIcESaIcEEES6_EEdeEv>:
_ZNKSt17_Rb_tree_iteratorISt4pairIKNSt7__cxx1112basic_stringIcSt11char_traitsIcESaIcEEES6_EEdeEv():
/usr/include/c++/9/bits/stl_tree.h:277
      operator*() const _GLIBCXX_NOEXCEPT
    435a:	f3 0f 1e fa          	endbr64 
    435e:	55                   	push   %rbp
    435f:	48 89 e5             	mov    %rsp,%rbp
    4362:	48 83 ec 10          	sub    $0x10,%rsp
    4366:	48 89 7d f8          	mov    %rdi,-0x8(%rbp)
/usr/include/c++/9/bits/stl_tree.h:278
      { return *static_cast<_Link_type>(_M_node)->_M_valptr(); }
    436a:	48 8b 45 f8          	mov    -0x8(%rbp),%rax
    436e:	48 8b 00             	mov    (%rax),%rax
    4371:	48 89 c7             	mov    %rax,%rdi
    4374:	e8 57 0d 00 00       	callq  50d0 <_ZNSt13_Rb_tree_nodeISt4pairIKNSt7__cxx1112basic_stringIcSt11char_traitsIcESaIcEEES6_EE9_M_valptrEv>
    4379:	c9                   	leaveq 
    437a:	c3                   	retq   
    437b:	90                   	nop

000000000000437c <_ZNKSt4lessINSt7__cxx1112basic_stringIcSt11char_traitsIcESaIcEEEEclERKS5_S8_>:
_ZNKSt4lessINSt7__cxx1112basic_stringIcSt11char_traitsIcESaIcEEEEclERKS5_S8_():
/usr/include/c++/9/bits/stl_function.h:385
  template<typename _Tp>
    struct less : public binary_function<_Tp, _Tp, bool>
    {
      _GLIBCXX14_CONSTEXPR
      bool
      operator()(const _Tp& __x, const _Tp& __y) const
    437c:	f3 0f 1e fa          	endbr64 
    4380:	55                   	push   %rbp
    4381:	48 89 e5             	mov    %rsp,%rbp
    4384:	48 83 ec 20          	sub    $0x20,%rsp
    4388:	48 89 7d f8          	mov    %rdi,-0x8(%rbp)
    438c:	48 89 75 f0          	mov    %rsi,-0x10(%rbp)
    4390:	48 89 55 e8          	mov    %rdx,-0x18(%rbp)
/usr/include/c++/9/bits/stl_function.h:386
      { return __x < __y; }
    4394:	48 8b 55 e8          	mov    -0x18(%rbp),%rdx
    4398:	48 8b 45 f0          	mov    -0x10(%rbp),%rax
    439c:	48 89 d6             	mov    %rdx,%rsi
    439f:	48 89 c7             	mov    %rax,%rdi
    43a2:	e8 4b 0d 00 00       	callq  50f2 <_ZStltIcSt11char_traitsIcESaIcEEbRKNSt7__cxx1112basic_stringIT_T0_T1_EESA_>
    43a7:	c9                   	leaveq 
    43a8:	c3                   	retq   
    43a9:	90                   	nop

00000000000043aa <_ZNSt5tupleIJRKNSt7__cxx1112basic_stringIcSt11char_traitsIcESaIcEEEEEC1IvLb1EEES7_>:
_ZNSt5tupleIJRKNSt7__cxx1112basic_stringIcSt11char_traitsIcESaIcEEEEEC2IvLb1EEES7_():
/usr/include/c++/9/tuple:588
                   _ConstructibleTuple<_Elements...>()
                 && _TCC<_Dummy>::template
                   _ImplicitlyConvertibleTuple<_Elements...>()
                 && (sizeof...(_Elements) >= 1),
               bool>::type=true>
        constexpr tuple(const _Elements&... __elements)
    43aa:	f3 0f 1e fa          	endbr64 
    43ae:	55                   	push   %rbp
    43af:	48 89 e5             	mov    %rsp,%rbp
    43b2:	48 83 ec 10          	sub    $0x10,%rsp
    43b6:	48 89 7d f8          	mov    %rdi,-0x8(%rbp)
    43ba:	48 89 75 f0          	mov    %rsi,-0x10(%rbp)
/usr/include/c++/9/tuple:589
      : _Inherited(__elements...) { }
    43be:	48 8b 45 f8          	mov    -0x8(%rbp),%rax
    43c2:	48 8b 55 f0          	mov    -0x10(%rbp),%rdx
    43c6:	48 89 d6             	mov    %rdx,%rsi
    43c9:	48 89 c7             	mov    %rax,%rdi
    43cc:	e8 4d 0d 00 00       	callq  511e <_ZNSt11_Tuple_implILm0EJRKNSt7__cxx1112basic_stringIcSt11char_traitsIcESaIcEEEEEC1ES7_>
    43d1:	90                   	nop
    43d2:	c9                   	leaveq 
    43d3:	c3                   	retq   

00000000000043d4 <_ZNSt23_Rb_tree_const_iteratorISt4pairIKNSt7__cxx1112basic_stringIcSt11char_traitsIcESaIcEEES6_EEC1ERKSt17_Rb_tree_iteratorIS8_E>:
_ZNSt23_Rb_tree_const_iteratorISt4pairIKNSt7__cxx1112basic_stringIcSt11char_traitsIcESaIcEEES6_EEC2ERKSt17_Rb_tree_iteratorIS8_E():
/usr/include/c++/9/bits/stl_tree.h:348
      _Rb_tree_const_iterator(const iterator& __it) _GLIBCXX_NOEXCEPT
    43d4:	f3 0f 1e fa          	endbr64 
    43d8:	55                   	push   %rbp
    43d9:	48 89 e5             	mov    %rsp,%rbp
    43dc:	48 89 7d f8          	mov    %rdi,-0x8(%rbp)
    43e0:	48 89 75 f0          	mov    %rsi,-0x10(%rbp)
/usr/include/c++/9/bits/stl_tree.h:349
      : _M_node(__it._M_node) { }
    43e4:	48 8b 45 f0          	mov    -0x10(%rbp),%rax
    43e8:	48 8b 10             	mov    (%rax),%rdx
    43eb:	48 8b 45 f8          	mov    -0x8(%rbp),%rax
    43ef:	48 89 10             	mov    %rdx,(%rax)
    43f2:	90                   	nop
    43f3:	5d                   	pop    %rbp
    43f4:	c3                   	retq   
_ZNSt23_Rb_tree_const_iteratorISt4pairIKNSt7__cxx1112basic_stringIcSt11char_traitsIcESaIcEEES6_EEC1ERKSt17_Rb_tree_iteratorIS8_E():
    43f5:	90                   	nop

00000000000043f6 <_ZNSt8_Rb_treeINSt7__cxx1112basic_stringIcSt11char_traitsIcESaIcEEESt4pairIKS5_S5_ESt10_Select1stIS8_ESt4lessIS5_ESaIS8_EE22_M_emplace_hint_uniqueIJRKSt21piecewise_construct_tSt5tupleIJRS7_EESJ_IJEEEEESt17_Rb_tree_iteratorIS8_ESt23_Rb_tree_const_iteratorIS8_EDpOT_>:
_ZNSt8_Rb_treeINSt7__cxx1112basic_stringIcSt11char_traitsIcESaIcEEESt4pairIKS5_S5_ESt10_Select1stIS8_ESt4lessIS5_ESaIS8_EE22_M_emplace_hint_uniqueIJRKSt21piecewise_construct_tSt5tupleIJRS7_EESJ_IJEEEEESt17_Rb_tree_iteratorIS8_ESt23_Rb_tree_const_iteratorIS8_EDpOT_():
/usr/include/c++/9/bits/stl_tree.h:2457

  template<typename _Key, typename _Val, typename _KeyOfValue,
	   typename _Compare, typename _Alloc>
    template<typename... _Args>
      typename _Rb_tree<_Key, _Val, _KeyOfValue, _Compare, _Alloc>::iterator
      _Rb_tree<_Key, _Val, _KeyOfValue, _Compare, _Alloc>::
    43f6:	f3 0f 1e fa          	endbr64 
    43fa:	55                   	push   %rbp
    43fb:	48 89 e5             	mov    %rsp,%rbp
    43fe:	41 54                	push   %r12
    4400:	53                   	push   %rbx
    4401:	48 83 ec 60          	sub    $0x60,%rsp
    4405:	48 89 7d b8          	mov    %rdi,-0x48(%rbp)
    4409:	48 89 75 b0          	mov    %rsi,-0x50(%rbp)
    440d:	48 89 55 a8          	mov    %rdx,-0x58(%rbp)
    4411:	48 89 4d a0          	mov    %rcx,-0x60(%rbp)
    4415:	4c 89 45 98          	mov    %r8,-0x68(%rbp)
    4419:	64 48 8b 04 25 28 00 	mov    %fs:0x28,%rax
    4420:	00 00 
    4422:	48 89 45 e8          	mov    %rax,-0x18(%rbp)
    4426:	31 c0                	xor    %eax,%eax
/usr/include/c++/9/bits/stl_tree.h:2460
      _M_emplace_hint_unique(const_iterator __pos, _Args&&... __args)
      {
	_Link_type __z = _M_create_node(std::forward<_Args>(__args)...);
    4428:	48 8b 45 98          	mov    -0x68(%rbp),%rax
    442c:	48 89 c7             	mov    %rax,%rdi
    442f:	e8 38 0d 00 00       	callq  516c <_ZSt7forwardISt5tupleIJEEEOT_RNSt16remove_referenceIS2_E4typeE>
    4434:	49 89 c4             	mov    %rax,%r12
    4437:	48 8b 45 a0          	mov    -0x60(%rbp),%rax
    443b:	48 89 c7             	mov    %rax,%rdi
    443e:	e8 17 0d 00 00       	callq  515a <_ZSt7forwardISt5tupleIJRKNSt7__cxx1112basic_stringIcSt11char_traitsIcESaIcEEEEEEOT_RNSt16remove_referenceISA_E4typeE>
    4443:	48 89 c3             	mov    %rax,%rbx
    4446:	48 8b 45 a8          	mov    -0x58(%rbp),%rax
    444a:	48 89 c7             	mov    %rax,%rdi
    444d:	e8 f6 0c 00 00       	callq  5148 <_ZSt7forwardIRKSt21piecewise_construct_tEOT_RNSt16remove_referenceIS3_E4typeE>
    4452:	48 89 c6             	mov    %rax,%rsi
    4455:	48 8b 45 b8          	mov    -0x48(%rbp),%rax
    4459:	4c 89 e1             	mov    %r12,%rcx
    445c:	48 89 da             	mov    %rbx,%rdx
    445f:	48 89 c7             	mov    %rax,%rdi
    4462:	e8 17 0d 00 00       	callq  517e <_ZNSt8_Rb_treeINSt7__cxx1112basic_stringIcSt11char_traitsIcESaIcEEESt4pairIKS5_S5_ESt10_Select1stIS8_ESt4lessIS5_ESaIS8_EE14_M_create_nodeIJRKSt21piecewise_construct_tSt5tupleIJRS7_EESJ_IJEEEEEPSt13_Rb_tree_nodeIS8_EDpOT_>
    4467:	48 89 45 c8          	mov    %rax,-0x38(%rbp)
/usr/include/c++/9/bits/stl_tree.h:2464

	__try
	  {
	    auto __res = _M_get_insert_hint_unique_pos(__pos, _S_key(__z));
    446b:	48 8b 45 c8          	mov    -0x38(%rbp),%rax
    446f:	48 89 c7             	mov    %rax,%rdi
    4472:	e8 30 11 00 00       	callq  55a7 <_ZNSt8_Rb_treeINSt7__cxx1112basic_stringIcSt11char_traitsIcESaIcEEESt4pairIKS5_S5_ESt10_Select1stIS8_ESt4lessIS5_ESaIS8_EE6_S_keyEPKSt13_Rb_tree_nodeIS8_E>
    4477:	48 89 c2             	mov    %rax,%rdx
    447a:	48 8b 4d b0          	mov    -0x50(%rbp),%rcx
    447e:	48 8b 45 b8          	mov    -0x48(%rbp),%rax
    4482:	48 89 ce             	mov    %rcx,%rsi
    4485:	48 89 c7             	mov    %rax,%rdi
    4488:	e8 71 0d 00 00       	callq  51fe <_ZNSt8_Rb_treeINSt7__cxx1112basic_stringIcSt11char_traitsIcESaIcEEESt4pairIKS5_S5_ESt10_Select1stIS8_ESt4lessIS5_ESaIS8_EE29_M_get_insert_hint_unique_posESt23_Rb_tree_const_iteratorIS8_ERS7_>
/usr/include/c++/9/bits/stl_tree.h:2464 (discriminator 1)
    448d:	48 89 45 d0          	mov    %rax,-0x30(%rbp)
    4491:	48 89 55 d8          	mov    %rdx,-0x28(%rbp)
/usr/include/c++/9/bits/stl_tree.h:2466 (discriminator 1)

	    if (__res.second)
    4495:	48 8b 45 d8          	mov    -0x28(%rbp),%rax
    4499:	48 85 c0             	test   %rax,%rax
    449c:	74 1a                	je     44b8 <_ZNSt8_Rb_treeINSt7__cxx1112basic_stringIcSt11char_traitsIcESaIcEEESt4pairIKS5_S5_ESt10_Select1stIS8_ESt4lessIS5_ESaIS8_EE22_M_emplace_hint_uniqueIJRKSt21piecewise_construct_tSt5tupleIJRS7_EESJ_IJEEEEESt17_Rb_tree_iteratorIS8_ESt23_Rb_tree_const_iteratorIS8_EDpOT_+0xc2>
/usr/include/c++/9/bits/stl_tree.h:2467
	      return _M_insert_node(__res.first, __res.second, __z);
    449e:	48 8b 55 d8          	mov    -0x28(%rbp),%rdx
    44a2:	48 8b 75 d0          	mov    -0x30(%rbp),%rsi
    44a6:	48 8b 4d c8          	mov    -0x38(%rbp),%rcx
    44aa:	48 8b 45 b8          	mov    -0x48(%rbp),%rax
    44ae:	48 89 c7             	mov    %rax,%rdi
    44b1:	e8 44 11 00 00       	callq  55fa <_ZNSt8_Rb_treeINSt7__cxx1112basic_stringIcSt11char_traitsIcESaIcEEESt4pairIKS5_S5_ESt10_Select1stIS8_ESt4lessIS5_ESaIS8_EE14_M_insert_nodeEPSt18_Rb_tree_node_baseSG_PSt13_Rb_tree_nodeIS8_E>
    44b6:	eb 2a                	jmp    44e2 <_ZNSt8_Rb_treeINSt7__cxx1112basic_stringIcSt11char_traitsIcESaIcEEESt4pairIKS5_S5_ESt10_Select1stIS8_ESt4lessIS5_ESaIS8_EE22_M_emplace_hint_uniqueIJRKSt21piecewise_construct_tSt5tupleIJRS7_EESJ_IJEEEEESt17_Rb_tree_iteratorIS8_ESt23_Rb_tree_const_iteratorIS8_EDpOT_+0xec>
/usr/include/c++/9/bits/stl_tree.h:2469

	    _M_drop_node(__z);
    44b8:	48 8b 55 c8          	mov    -0x38(%rbp),%rdx
    44bc:	48 8b 45 b8          	mov    -0x48(%rbp),%rax
    44c0:	48 89 d6             	mov    %rdx,%rsi
    44c3:	48 89 c7             	mov    %rax,%rdi
    44c6:	e8 69 0b 00 00       	callq  5034 <_ZNSt8_Rb_treeINSt7__cxx1112basic_stringIcSt11char_traitsIcESaIcEEESt4pairIKS5_S5_ESt10_Select1stIS8_ESt4lessIS5_ESaIS8_EE12_M_drop_nodeEPSt13_Rb_tree_nodeIS8_E>
/usr/include/c++/9/bits/stl_tree.h:2470
	    return iterator(__res.first);
    44cb:	48 8b 55 d0          	mov    -0x30(%rbp),%rdx
    44cf:	48 8d 45 c0          	lea    -0x40(%rbp),%rax
    44d3:	48 89 d6             	mov    %rdx,%rsi
    44d6:	48 89 c7             	mov    %rax,%rdi
    44d9:	e8 06 12 00 00       	callq  56e4 <_ZNSt17_Rb_tree_iteratorISt4pairIKNSt7__cxx1112basic_stringIcSt11char_traitsIcESaIcEEES6_EEC1EPSt18_Rb_tree_node_base>
    44de:	48 8b 45 c0          	mov    -0x40(%rbp),%rax
/usr/include/c++/9/bits/stl_tree.h:2477 (discriminator 1)
	__catch(...)
	  {
	    _M_drop_node(__z);
	    __throw_exception_again;
	  }
      }
    44e2:	48 8b 5d e8          	mov    -0x18(%rbp),%rbx
    44e6:	64 48 33 1c 25 28 00 	xor    %fs:0x28,%rbx
    44ed:	00 00 
    44ef:	74 42                	je     4533 <_ZNSt8_Rb_treeINSt7__cxx1112basic_stringIcSt11char_traitsIcESaIcEEESt4pairIKS5_S5_ESt10_Select1stIS8_ESt4lessIS5_ESaIS8_EE22_M_emplace_hint_uniqueIJRKSt21piecewise_construct_tSt5tupleIJRS7_EESJ_IJEEEEESt17_Rb_tree_iteratorIS8_ESt23_Rb_tree_const_iteratorIS8_EDpOT_+0x13d>
    44f1:	eb 3b                	jmp    452e <_ZNSt8_Rb_treeINSt7__cxx1112basic_stringIcSt11char_traitsIcESaIcEEESt4pairIKS5_S5_ESt10_Select1stIS8_ESt4lessIS5_ESaIS8_EE22_M_emplace_hint_uniqueIJRKSt21piecewise_construct_tSt5tupleIJRS7_EESJ_IJEEEEESt17_Rb_tree_iteratorIS8_ESt23_Rb_tree_const_iteratorIS8_EDpOT_+0x138>
    44f3:	f3 0f 1e fa          	endbr64 
/usr/include/c++/9/bits/stl_tree.h:2472
	__catch(...)
    44f7:	48 89 c7             	mov    %rax,%rdi
    44fa:	e8 61 e0 ff ff       	callq  2560 <__cxa_begin_catch@plt>
/usr/include/c++/9/bits/stl_tree.h:2474
	    _M_drop_node(__z);
    44ff:	48 8b 55 c8          	mov    -0x38(%rbp),%rdx
    4503:	48 8b 45 b8          	mov    -0x48(%rbp),%rax
    4507:	48 89 d6             	mov    %rdx,%rsi
    450a:	48 89 c7             	mov    %rax,%rdi
    450d:	e8 22 0b 00 00       	callq  5034 <_ZNSt8_Rb_treeINSt7__cxx1112basic_stringIcSt11char_traitsIcESaIcEEESt4pairIKS5_S5_ESt10_Select1stIS8_ESt4lessIS5_ESaIS8_EE12_M_drop_nodeEPSt13_Rb_tree_nodeIS8_E>
/usr/include/c++/9/bits/stl_tree.h:2475
	    __throw_exception_again;
    4512:	e8 b9 e2 ff ff       	callq  27d0 <__cxa_rethrow@plt>
    4517:	f3 0f 1e fa          	endbr64 
    451b:	48 89 c3             	mov    %rax,%rbx
/usr/include/c++/9/bits/stl_tree.h:2472
	__catch(...)
    451e:	e8 0d e3 ff ff       	callq  2830 <__cxa_end_catch@plt>
    4523:	48 89 d8             	mov    %rbx,%rax
    4526:	48 89 c7             	mov    %rax,%rdi
    4529:	e8 32 e3 ff ff       	callq  2860 <_Unwind_Resume@plt>
/usr/include/c++/9/bits/stl_tree.h:2477
      }
    452e:	e8 ad e1 ff ff       	callq  26e0 <__stack_chk_fail@plt>
    4533:	48 83 c4 60          	add    $0x60,%rsp
    4537:	5b                   	pop    %rbx
    4538:	41 5c                	pop    %r12
    453a:	5d                   	pop    %rbp
    453b:	c3                   	retq   

000000000000453c <_ZNSt8_Rb_treeINSt7__cxx1112basic_stringIcSt11char_traitsIcESaIcEEESt4pairIKS5_S5_ESt10_Select1stIS8_ESt4lessIS5_ESaIS8_EE4findERS7_>:
_ZNSt8_Rb_treeINSt7__cxx1112basic_stringIcSt11char_traitsIcESaIcEEESt4pairIKS5_S5_ESt10_Select1stIS8_ESt4lessIS5_ESaIS8_EE4findERS7_():
/usr/include/c++/9/bits/stl_tree.h:2559

  template<typename _Key, typename _Val, typename _KeyOfValue,
	   typename _Compare, typename _Alloc>
    typename _Rb_tree<_Key, _Val, _KeyOfValue,
		      _Compare, _Alloc>::iterator
    _Rb_tree<_Key, _Val, _KeyOfValue, _Compare, _Alloc>::
    453c:	f3 0f 1e fa          	endbr64 
    4540:	55                   	push   %rbp
    4541:	48 89 e5             	mov    %rsp,%rbp
    4544:	53                   	push   %rbx
    4545:	48 83 ec 38          	sub    $0x38,%rsp
    4549:	48 89 7d c8          	mov    %rdi,-0x38(%rbp)
    454d:	48 89 75 c0          	mov    %rsi,-0x40(%rbp)
    4551:	64 48 8b 04 25 28 00 	mov    %fs:0x28,%rax
    4558:	00 00 
    455a:	48 89 45 e8          	mov    %rax,-0x18(%rbp)
    455e:	31 c0                	xor    %eax,%eax
/usr/include/c++/9/bits/stl_tree.h:2562
    find(const _Key& __k)
    {
      iterator __j = _M_lower_bound(_M_begin(), _M_end(), __k);
    4560:	48 8b 45 c8          	mov    -0x38(%rbp),%rax
    4564:	48 89 c7             	mov    %rax,%rdi
    4567:	e8 96 11 00 00       	callq  5702 <_ZNSt8_Rb_treeINSt7__cxx1112basic_stringIcSt11char_traitsIcESaIcEEESt4pairIKS5_S5_ESt10_Select1stIS8_ESt4lessIS5_ESaIS8_EE6_M_endEv>
    456c:	48 89 c3             	mov    %rax,%rbx
    456f:	48 8b 45 c8          	mov    -0x38(%rbp),%rax
    4573:	48 89 c7             	mov    %rax,%rdi
    4576:	e8 79 fd ff ff       	callq  42f4 <_ZNSt8_Rb_treeINSt7__cxx1112basic_stringIcSt11char_traitsIcESaIcEEESt4pairIKS5_S5_ESt10_Select1stIS8_ESt4lessIS5_ESaIS8_EE8_M_beginEv>
    457b:	48 89 c6             	mov    %rax,%rsi
    457e:	48 8b 55 c0          	mov    -0x40(%rbp),%rdx
    4582:	48 8b 45 c8          	mov    -0x38(%rbp),%rax
    4586:	48 89 d1             	mov    %rdx,%rcx
    4589:	48 89 da             	mov    %rbx,%rdx
    458c:	48 89 c7             	mov    %rax,%rdi
    458f:	e8 84 11 00 00       	callq  5718 <_ZNSt8_Rb_treeINSt7__cxx1112basic_stringIcSt11char_traitsIcESaIcEEESt4pairIKS5_S5_ESt10_Select1stIS8_ESt4lessIS5_ESaIS8_EE14_M_lower_boundEPSt13_Rb_tree_nodeIS8_EPSt18_Rb_tree_node_baseRS7_>
    4594:	48 89 45 d8          	mov    %rax,-0x28(%rbp)
/usr/include/c++/9/bits/stl_tree.h:2563
      return (__j == end()
    4598:	48 8b 45 c8          	mov    -0x38(%rbp),%rax
    459c:	48 89 c7             	mov    %rax,%rdi
    459f:	e8 6e 00 00 00       	callq  4612 <_ZNSt8_Rb_treeINSt7__cxx1112basic_stringIcSt11char_traitsIcESaIcEEESt4pairIKS5_S5_ESt10_Select1stIS8_ESt4lessIS5_ESaIS8_EE3endEv>
    45a4:	48 89 45 e0          	mov    %rax,-0x20(%rbp)
    45a8:	48 8d 55 e0          	lea    -0x20(%rbp),%rdx
    45ac:	48 8d 45 d8          	lea    -0x28(%rbp),%rax
    45b0:	48 89 d6             	mov    %rdx,%rsi
    45b3:	48 89 c7             	mov    %rax,%rdi
    45b6:	e8 15 f7 ff ff       	callq  3cd0 <_ZSteqRKSt17_Rb_tree_iteratorISt4pairIKNSt7__cxx1112basic_stringIcSt11char_traitsIcESaIcEEES6_EESB_>
/usr/include/c++/9/bits/stl_tree.h:2565
	      || _M_impl._M_key_compare(__k,
					_S_key(__j._M_node))) ? end() : __j;
    45bb:	84 c0                	test   %al,%al
    45bd:	75 26                	jne    45e5 <_ZNSt8_Rb_treeINSt7__cxx1112basic_stringIcSt11char_traitsIcESaIcEEESt4pairIKS5_S5_ESt10_Select1stIS8_ESt4lessIS5_ESaIS8_EE4findERS7_+0xa9>
/usr/include/c++/9/bits/stl_tree.h:2564
	      || _M_impl._M_key_compare(__k,
    45bf:	48 8b 5d c8          	mov    -0x38(%rbp),%rbx
/usr/include/c++/9/bits/stl_tree.h:2565
					_S_key(__j._M_node))) ? end() : __j;
    45c3:	48 8b 45 d8          	mov    -0x28(%rbp),%rax
/usr/include/c++/9/bits/stl_tree.h:2564
	      || _M_impl._M_key_compare(__k,
    45c7:	48 89 c7             	mov    %rax,%rdi
    45ca:	e8 06 12 00 00       	callq  57d5 <_ZNSt8_Rb_treeINSt7__cxx1112basic_stringIcSt11char_traitsIcESaIcEEESt4pairIKS5_S5_ESt10_Select1stIS8_ESt4lessIS5_ESaIS8_EE6_S_keyEPKSt18_Rb_tree_node_base>
    45cf:	48 89 c2             	mov    %rax,%rdx
    45d2:	48 8b 45 c0          	mov    -0x40(%rbp),%rax
    45d6:	48 89 c6             	mov    %rax,%rsi
    45d9:	48 89 df             	mov    %rbx,%rdi
    45dc:	e8 9b fd ff ff       	callq  437c <_ZNKSt4lessINSt7__cxx1112basic_stringIcSt11char_traitsIcESaIcEEEEclERKS5_S8_>
    45e1:	84 c0                	test   %al,%al
    45e3:	74 0e                	je     45f3 <_ZNSt8_Rb_treeINSt7__cxx1112basic_stringIcSt11char_traitsIcESaIcEEESt4pairIKS5_S5_ESt10_Select1stIS8_ESt4lessIS5_ESaIS8_EE4findERS7_+0xb7>
/usr/include/c++/9/bits/stl_tree.h:2565 (discriminator 1)
					_S_key(__j._M_node))) ? end() : __j;
    45e5:	48 8b 45 c8          	mov    -0x38(%rbp),%rax
    45e9:	48 89 c7             	mov    %rax,%rdi
    45ec:	e8 21 00 00 00       	callq  4612 <_ZNSt8_Rb_treeINSt7__cxx1112basic_stringIcSt11char_traitsIcESaIcEEESt4pairIKS5_S5_ESt10_Select1stIS8_ESt4lessIS5_ESaIS8_EE3endEv>
    45f1:	eb 04                	jmp    45f7 <_ZNSt8_Rb_treeINSt7__cxx1112basic_stringIcSt11char_traitsIcESaIcEEESt4pairIKS5_S5_ESt10_Select1stIS8_ESt4lessIS5_ESaIS8_EE4findERS7_+0xbb>
/usr/include/c++/9/bits/stl_tree.h:2565
    45f3:	48 8b 45 d8          	mov    -0x28(%rbp),%rax
/usr/include/c++/9/bits/stl_tree.h:2566
    }
    45f7:	48 8b 4d e8          	mov    -0x18(%rbp),%rcx
    45fb:	64 48 33 0c 25 28 00 	xor    %fs:0x28,%rcx
    4602:	00 00 
    4604:	74 05                	je     460b <_ZNSt8_Rb_treeINSt7__cxx1112basic_stringIcSt11char_traitsIcESaIcEEESt4pairIKS5_S5_ESt10_Select1stIS8_ESt4lessIS5_ESaIS8_EE4findERS7_+0xcf>
    4606:	e8 d5 e0 ff ff       	callq  26e0 <__stack_chk_fail@plt>
    460b:	48 83 c4 38          	add    $0x38,%rsp
    460f:	5b                   	pop    %rbx
    4610:	5d                   	pop    %rbp
    4611:	c3                   	retq   

0000000000004612 <_ZNSt8_Rb_treeINSt7__cxx1112basic_stringIcSt11char_traitsIcESaIcEEESt4pairIKS5_S5_ESt10_Select1stIS8_ESt4lessIS5_ESaIS8_EE3endEv>:
_ZNSt8_Rb_treeINSt7__cxx1112basic_stringIcSt11char_traitsIcESaIcEEESt4pairIKS5_S5_ESt10_Select1stIS8_ESt4lessIS5_ESaIS8_EE3endEv():
/usr/include/c++/9/bits/stl_tree.h:1019
      end() _GLIBCXX_NOEXCEPT
    4612:	f3 0f 1e fa          	endbr64 
    4616:	55                   	push   %rbp
    4617:	48 89 e5             	mov    %rsp,%rbp
    461a:	48 83 ec 20          	sub    $0x20,%rsp
    461e:	48 89 7d e8          	mov    %rdi,-0x18(%rbp)
    4622:	64 48 8b 04 25 28 00 	mov    %fs:0x28,%rax
    4629:	00 00 
    462b:	48 89 45 f8          	mov    %rax,-0x8(%rbp)
    462f:	31 c0                	xor    %eax,%eax
/usr/include/c++/9/bits/stl_tree.h:1020
      { return iterator(&this->_M_impl._M_header); }
    4631:	48 8b 45 e8          	mov    -0x18(%rbp),%rax
    4635:	48 8d 50 08          	lea    0x8(%rax),%rdx
    4639:	48 8d 45 f0          	lea    -0x10(%rbp),%rax
    463d:	48 89 d6             	mov    %rdx,%rsi
    4640:	48 89 c7             	mov    %rax,%rdi
    4643:	e8 9c 10 00 00       	callq  56e4 <_ZNSt17_Rb_tree_iteratorISt4pairIKNSt7__cxx1112basic_stringIcSt11char_traitsIcESaIcEEES6_EEC1EPSt18_Rb_tree_node_base>
    4648:	48 8b 45 f0          	mov    -0x10(%rbp),%rax
    464c:	48 8b 4d f8          	mov    -0x8(%rbp),%rcx
    4650:	64 48 33 0c 25 28 00 	xor    %fs:0x28,%rcx
    4657:	00 00 
    4659:	74 05                	je     4660 <_ZNSt8_Rb_treeINSt7__cxx1112basic_stringIcSt11char_traitsIcESaIcEEESt4pairIKS5_S5_ESt10_Select1stIS8_ESt4lessIS5_ESaIS8_EE3endEv+0x4e>
    465b:	e8 80 e0 ff ff       	callq  26e0 <__stack_chk_fail@plt>
    4660:	c9                   	leaveq 
    4661:	c3                   	retq   

0000000000004662 <_ZNSt5tupleIJONSt7__cxx1112basic_stringIcSt11char_traitsIcESaIcEEEEEC1EOS7_>:
_ZNSt5tupleIJONSt7__cxx1112basic_stringIcSt11char_traitsIcESaIcEEEEEC2EOS7_():
/usr/include/c++/9/tuple:642
        explicit constexpr tuple(_UElements&&... __elements)
	: _Inherited(std::forward<_UElements>(__elements)...) {	}

      constexpr tuple(const tuple&) = default;

      constexpr tuple(tuple&&) = default;
    4662:	f3 0f 1e fa          	endbr64 
    4666:	55                   	push   %rbp
    4667:	48 89 e5             	mov    %rsp,%rbp
    466a:	48 83 ec 10          	sub    $0x10,%rsp
    466e:	48 89 7d f8          	mov    %rdi,-0x8(%rbp)
    4672:	48 89 75 f0          	mov    %rsi,-0x10(%rbp)
    4676:	48 8b 45 f8          	mov    -0x8(%rbp),%rax
    467a:	48 8b 55 f0          	mov    -0x10(%rbp),%rdx
    467e:	48 89 d6             	mov    %rdx,%rsi
    4681:	48 89 c7             	mov    %rax,%rdi
    4684:	e8 b5 11 00 00       	callq  583e <_ZNSt11_Tuple_implILm0EJONSt7__cxx1112basic_stringIcSt11char_traitsIcESaIcEEEEEC1EOS7_>
    4689:	90                   	nop
    468a:	c9                   	leaveq 
    468b:	c3                   	retq   

000000000000468c <_ZSt16forward_as_tupleIJNSt7__cxx1112basic_stringIcSt11char_traitsIcESaIcEEEEESt5tupleIJDpOT_EES9_>:
_ZSt16forward_as_tupleIJNSt7__cxx1112basic_stringIcSt11char_traitsIcESaIcEEEEESt5tupleIJDpOT_EES9_():
/usr/include/c++/9/tuple:1482
  // _GLIBCXX_RESOLVE_LIB_DEFECTS
  // 2275. Why is forward_as_tuple not constexpr?
  /// std::forward_as_tuple
  template<typename... _Elements>
    constexpr tuple<_Elements&&...>
    forward_as_tuple(_Elements&&... __args) noexcept
    468c:	f3 0f 1e fa          	endbr64 
    4690:	55                   	push   %rbp
    4691:	48 89 e5             	mov    %rsp,%rbp
    4694:	48 83 ec 10          	sub    $0x10,%rsp
    4698:	48 89 7d f8          	mov    %rdi,-0x8(%rbp)
    469c:	48 89 75 f0          	mov    %rsi,-0x10(%rbp)
/usr/include/c++/9/tuple:1483
    { return tuple<_Elements&&...>(std::forward<_Elements>(__args)...); }
    46a0:	48 8b 45 f0          	mov    -0x10(%rbp),%rax
    46a4:	48 89 c7             	mov    %rax,%rdi
    46a7:	e8 47 11 00 00       	callq  57f3 <_ZSt7forwardINSt7__cxx1112basic_stringIcSt11char_traitsIcESaIcEEEEOT_RNSt16remove_referenceIS6_E4typeE>
    46ac:	48 89 c2             	mov    %rax,%rdx
    46af:	48 8b 45 f8          	mov    -0x8(%rbp),%rax
    46b3:	48 89 d6             	mov    %rdx,%rsi
    46b6:	48 89 c7             	mov    %rax,%rdi
    46b9:	e8 48 11 00 00       	callq  5806 <_ZNSt5tupleIJONSt7__cxx1112basic_stringIcSt11char_traitsIcESaIcEEEEEC1IJS5_ELb1EEEDpOT_>
    46be:	48 8b 45 f8          	mov    -0x8(%rbp),%rax
    46c2:	c9                   	leaveq 
    46c3:	c3                   	retq   

00000000000046c4 <_ZNSt8_Rb_treeINSt7__cxx1112basic_stringIcSt11char_traitsIcESaIcEEESt4pairIKS5_S5_ESt10_Select1stIS8_ESt4lessIS5_ESaIS8_EE22_M_emplace_hint_uniqueIJRKSt21piecewise_construct_tSt5tupleIJOS5_EESJ_IJEEEEESt17_Rb_tree_iteratorIS8_ESt23_Rb_tree_const_iteratorIS8_EDpOT_>:
_ZNSt8_Rb_treeINSt7__cxx1112basic_stringIcSt11char_traitsIcESaIcEEESt4pairIKS5_S5_ESt10_Select1stIS8_ESt4lessIS5_ESaIS8_EE22_M_emplace_hint_uniqueIJRKSt21piecewise_construct_tSt5tupleIJOS5_EESJ_IJEEEEESt17_Rb_tree_iteratorIS8_ESt23_Rb_tree_const_iteratorIS8_EDpOT_():
/usr/include/c++/9/bits/stl_tree.h:2457
      _Rb_tree<_Key, _Val, _KeyOfValue, _Compare, _Alloc>::
    46c4:	f3 0f 1e fa          	endbr64 
    46c8:	55                   	push   %rbp
    46c9:	48 89 e5             	mov    %rsp,%rbp
    46cc:	41 54                	push   %r12
    46ce:	53                   	push   %rbx
    46cf:	48 83 ec 60          	sub    $0x60,%rsp
    46d3:	48 89 7d b8          	mov    %rdi,-0x48(%rbp)
    46d7:	48 89 75 b0          	mov    %rsi,-0x50(%rbp)
    46db:	48 89 55 a8          	mov    %rdx,-0x58(%rbp)
    46df:	48 89 4d a0          	mov    %rcx,-0x60(%rbp)
    46e3:	4c 89 45 98          	mov    %r8,-0x68(%rbp)
    46e7:	64 48 8b 04 25 28 00 	mov    %fs:0x28,%rax
    46ee:	00 00 
    46f0:	48 89 45 e8          	mov    %rax,-0x18(%rbp)
    46f4:	31 c0                	xor    %eax,%eax
/usr/include/c++/9/bits/stl_tree.h:2460
	_Link_type __z = _M_create_node(std::forward<_Args>(__args)...);
    46f6:	48 8b 45 98          	mov    -0x68(%rbp),%rax
    46fa:	48 89 c7             	mov    %rax,%rdi
    46fd:	e8 6a 0a 00 00       	callq  516c <_ZSt7forwardISt5tupleIJEEEOT_RNSt16remove_referenceIS2_E4typeE>
    4702:	49 89 c4             	mov    %rax,%r12
    4705:	48 8b 45 a0          	mov    -0x60(%rbp),%rax
    4709:	48 89 c7             	mov    %rax,%rdi
    470c:	e8 6d 11 00 00       	callq  587e <_ZSt7forwardISt5tupleIJONSt7__cxx1112basic_stringIcSt11char_traitsIcESaIcEEEEEEOT_RNSt16remove_referenceIS9_E4typeE>
    4711:	48 89 c3             	mov    %rax,%rbx
    4714:	48 8b 45 a8          	mov    -0x58(%rbp),%rax
    4718:	48 89 c7             	mov    %rax,%rdi
    471b:	e8 28 0a 00 00       	callq  5148 <_ZSt7forwardIRKSt21piecewise_construct_tEOT_RNSt16remove_referenceIS3_E4typeE>
    4720:	48 89 c6             	mov    %rax,%rsi
    4723:	48 8b 45 b8          	mov    -0x48(%rbp),%rax
    4727:	4c 89 e1             	mov    %r12,%rcx
    472a:	48 89 da             	mov    %rbx,%rdx
    472d:	48 89 c7             	mov    %rax,%rdi
    4730:	e8 5b 11 00 00       	callq  5890 <_ZNSt8_Rb_treeINSt7__cxx1112basic_stringIcSt11char_traitsIcESaIcEEESt4pairIKS5_S5_ESt10_Select1stIS8_ESt4lessIS5_ESaIS8_EE14_M_create_nodeIJRKSt21piecewise_construct_tSt5tupleIJOS5_EESJ_IJEEEEEPSt13_Rb_tree_nodeIS8_EDpOT_>
    4735:	48 89 45 c8          	mov    %rax,-0x38(%rbp)
/usr/include/c++/9/bits/stl_tree.h:2464
	    auto __res = _M_get_insert_hint_unique_pos(__pos, _S_key(__z));
    4739:	48 8b 45 c8          	mov    -0x38(%rbp),%rax
    473d:	48 89 c7             	mov    %rax,%rdi
    4740:	e8 62 0e 00 00       	callq  55a7 <_ZNSt8_Rb_treeINSt7__cxx1112basic_stringIcSt11char_traitsIcESaIcEEESt4pairIKS5_S5_ESt10_Select1stIS8_ESt4lessIS5_ESaIS8_EE6_S_keyEPKSt13_Rb_tree_nodeIS8_E>
    4745:	48 89 c2             	mov    %rax,%rdx
    4748:	48 8b 4d b0          	mov    -0x50(%rbp),%rcx
    474c:	48 8b 45 b8          	mov    -0x48(%rbp),%rax
    4750:	48 89 ce             	mov    %rcx,%rsi
    4753:	48 89 c7             	mov    %rax,%rdi
    4756:	e8 a3 0a 00 00       	callq  51fe <_ZNSt8_Rb_treeINSt7__cxx1112basic_stringIcSt11char_traitsIcESaIcEEESt4pairIKS5_S5_ESt10_Select1stIS8_ESt4lessIS5_ESaIS8_EE29_M_get_insert_hint_unique_posESt23_Rb_tree_const_iteratorIS8_ERS7_>
/usr/include/c++/9/bits/stl_tree.h:2464 (discriminator 1)
    475b:	48 89 45 d0          	mov    %rax,-0x30(%rbp)
    475f:	48 89 55 d8          	mov    %rdx,-0x28(%rbp)
/usr/include/c++/9/bits/stl_tree.h:2466 (discriminator 1)
	    if (__res.second)
    4763:	48 8b 45 d8          	mov    -0x28(%rbp),%rax
    4767:	48 85 c0             	test   %rax,%rax
    476a:	74 1a                	je     4786 <_ZNSt8_Rb_treeINSt7__cxx1112basic_stringIcSt11char_traitsIcESaIcEEESt4pairIKS5_S5_ESt10_Select1stIS8_ESt4lessIS5_ESaIS8_EE22_M_emplace_hint_uniqueIJRKSt21piecewise_construct_tSt5tupleIJOS5_EESJ_IJEEEEESt17_Rb_tree_iteratorIS8_ESt23_Rb_tree_const_iteratorIS8_EDpOT_+0xc2>
/usr/include/c++/9/bits/stl_tree.h:2467
	      return _M_insert_node(__res.first, __res.second, __z);
    476c:	48 8b 55 d8          	mov    -0x28(%rbp),%rdx
    4770:	48 8b 75 d0          	mov    -0x30(%rbp),%rsi
    4774:	48 8b 4d c8          	mov    -0x38(%rbp),%rcx
    4778:	48 8b 45 b8          	mov    -0x48(%rbp),%rax
    477c:	48 89 c7             	mov    %rax,%rdi
    477f:	e8 76 0e 00 00       	callq  55fa <_ZNSt8_Rb_treeINSt7__cxx1112basic_stringIcSt11char_traitsIcESaIcEEESt4pairIKS5_S5_ESt10_Select1stIS8_ESt4lessIS5_ESaIS8_EE14_M_insert_nodeEPSt18_Rb_tree_node_baseSG_PSt13_Rb_tree_nodeIS8_E>
    4784:	eb 2a                	jmp    47b0 <_ZNSt8_Rb_treeINSt7__cxx1112basic_stringIcSt11char_traitsIcESaIcEEESt4pairIKS5_S5_ESt10_Select1stIS8_ESt4lessIS5_ESaIS8_EE22_M_emplace_hint_uniqueIJRKSt21piecewise_construct_tSt5tupleIJOS5_EESJ_IJEEEEESt17_Rb_tree_iteratorIS8_ESt23_Rb_tree_const_iteratorIS8_EDpOT_+0xec>
/usr/include/c++/9/bits/stl_tree.h:2469
	    _M_drop_node(__z);
    4786:	48 8b 55 c8          	mov    -0x38(%rbp),%rdx
    478a:	48 8b 45 b8          	mov    -0x48(%rbp),%rax
    478e:	48 89 d6             	mov    %rdx,%rsi
    4791:	48 89 c7             	mov    %rax,%rdi
    4794:	e8 9b 08 00 00       	callq  5034 <_ZNSt8_Rb_treeINSt7__cxx1112basic_stringIcSt11char_traitsIcESaIcEEESt4pairIKS5_S5_ESt10_Select1stIS8_ESt4lessIS5_ESaIS8_EE12_M_drop_nodeEPSt13_Rb_tree_nodeIS8_E>
/usr/include/c++/9/bits/stl_tree.h:2470
	    return iterator(__res.first);
    4799:	48 8b 55 d0          	mov    -0x30(%rbp),%rdx
    479d:	48 8d 45 c0          	lea    -0x40(%rbp),%rax
    47a1:	48 89 d6             	mov    %rdx,%rsi
    47a4:	48 89 c7             	mov    %rax,%rdi
    47a7:	e8 38 0f 00 00       	callq  56e4 <_ZNSt17_Rb_tree_iteratorISt4pairIKNSt7__cxx1112basic_stringIcSt11char_traitsIcESaIcEEES6_EEC1EPSt18_Rb_tree_node_base>
    47ac:	48 8b 45 c0          	mov    -0x40(%rbp),%rax
/usr/include/c++/9/bits/stl_tree.h:2477 (discriminator 1)
      }
    47b0:	48 8b 5d e8          	mov    -0x18(%rbp),%rbx
    47b4:	64 48 33 1c 25 28 00 	xor    %fs:0x28,%rbx
    47bb:	00 00 
    47bd:	74 42                	je     4801 <_ZNSt8_Rb_treeINSt7__cxx1112basic_stringIcSt11char_traitsIcESaIcEEESt4pairIKS5_S5_ESt10_Select1stIS8_ESt4lessIS5_ESaIS8_EE22_M_emplace_hint_uniqueIJRKSt21piecewise_construct_tSt5tupleIJOS5_EESJ_IJEEEEESt17_Rb_tree_iteratorIS8_ESt23_Rb_tree_const_iteratorIS8_EDpOT_+0x13d>
    47bf:	eb 3b                	jmp    47fc <_ZNSt8_Rb_treeINSt7__cxx1112basic_stringIcSt11char_traitsIcESaIcEEESt4pairIKS5_S5_ESt10_Select1stIS8_ESt4lessIS5_ESaIS8_EE22_M_emplace_hint_uniqueIJRKSt21piecewise_construct_tSt5tupleIJOS5_EESJ_IJEEEEESt17_Rb_tree_iteratorIS8_ESt23_Rb_tree_const_iteratorIS8_EDpOT_+0x138>
    47c1:	f3 0f 1e fa          	endbr64 
/usr/include/c++/9/bits/stl_tree.h:2472
	__catch(...)
    47c5:	48 89 c7             	mov    %rax,%rdi
    47c8:	e8 93 dd ff ff       	callq  2560 <__cxa_begin_catch@plt>
/usr/include/c++/9/bits/stl_tree.h:2474
	    _M_drop_node(__z);
    47cd:	48 8b 55 c8          	mov    -0x38(%rbp),%rdx
    47d1:	48 8b 45 b8          	mov    -0x48(%rbp),%rax
    47d5:	48 89 d6             	mov    %rdx,%rsi
    47d8:	48 89 c7             	mov    %rax,%rdi
    47db:	e8 54 08 00 00       	callq  5034 <_ZNSt8_Rb_treeINSt7__cxx1112basic_stringIcSt11char_traitsIcESaIcEEESt4pairIKS5_S5_ESt10_Select1stIS8_ESt4lessIS5_ESaIS8_EE12_M_drop_nodeEPSt13_Rb_tree_nodeIS8_E>
/usr/include/c++/9/bits/stl_tree.h:2475
	    __throw_exception_again;
    47e0:	e8 eb df ff ff       	callq  27d0 <__cxa_rethrow@plt>
    47e5:	f3 0f 1e fa          	endbr64 
    47e9:	48 89 c3             	mov    %rax,%rbx
/usr/include/c++/9/bits/stl_tree.h:2472
	__catch(...)
    47ec:	e8 3f e0 ff ff       	callq  2830 <__cxa_end_catch@plt>
    47f1:	48 89 d8             	mov    %rbx,%rax
    47f4:	48 89 c7             	mov    %rax,%rdi
    47f7:	e8 64 e0 ff ff       	callq  2860 <_Unwind_Resume@plt>
/usr/include/c++/9/bits/stl_tree.h:2477
      }
    47fc:	e8 df de ff ff       	callq  26e0 <__stack_chk_fail@plt>
    4801:	48 83 c4 60          	add    $0x60,%rsp
    4805:	5b                   	pop    %rbx
    4806:	41 5c                	pop    %r12
    4808:	5d                   	pop    %rbp
    4809:	c3                   	retq   

000000000000480a <_ZNSaIiEC1Ev>:
_ZNSaIiEC2Ev():
/usr/include/c++/9/bits/allocator.h:137
    480a:	f3 0f 1e fa          	endbr64 
    480e:	55                   	push   %rbp
    480f:	48 89 e5             	mov    %rsp,%rbp
    4812:	48 83 ec 10          	sub    $0x10,%rsp
    4816:	48 89 7d f8          	mov    %rdi,-0x8(%rbp)
    481a:	48 8b 45 f8          	mov    -0x8(%rbp),%rax
    481e:	48 89 c7             	mov    %rax,%rdi
    4821:	e8 ea 10 00 00       	callq  5910 <_ZN9__gnu_cxx13new_allocatorIiEC1Ev>
    4826:	90                   	nop
    4827:	c9                   	leaveq 
    4828:	c3                   	retq   
    4829:	90                   	nop

000000000000482a <_ZNSt12_Vector_baseIiSaIiEE17_Vector_impl_dataC1Ev>:
_ZNSt12_Vector_baseIiSaIiEE17_Vector_impl_dataC2Ev():
/usr/include/c++/9/bits/stl_vector.h:94
	_Vector_impl_data() _GLIBCXX_NOEXCEPT
    482a:	f3 0f 1e fa          	endbr64 
    482e:	55                   	push   %rbp
    482f:	48 89 e5             	mov    %rsp,%rbp
    4832:	48 89 7d f8          	mov    %rdi,-0x8(%rbp)
/usr/include/c++/9/bits/stl_vector.h:95
	: _M_start(), _M_finish(), _M_end_of_storage()
    4836:	48 8b 45 f8          	mov    -0x8(%rbp),%rax
    483a:	48 c7 00 00 00 00 00 	movq   $0x0,(%rax)
    4841:	48 8b 45 f8          	mov    -0x8(%rbp),%rax
    4845:	48 c7 40 08 00 00 00 	movq   $0x0,0x8(%rax)
    484c:	00 
    484d:	48 8b 45 f8          	mov    -0x8(%rbp),%rax
    4851:	48 c7 40 10 00 00 00 	movq   $0x0,0x10(%rax)
    4858:	00 
/usr/include/c++/9/bits/stl_vector.h:96
	{ }
    4859:	90                   	nop
    485a:	5d                   	pop    %rbp
    485b:	c3                   	retq   

000000000000485c <_ZN9__gnu_cxx13new_allocatorIiED1Ev>:
_ZN9__gnu_cxx13new_allocatorIiED2Ev():
/usr/include/c++/9/ext/new_allocator.h:89
    485c:	f3 0f 1e fa          	endbr64 
    4860:	55                   	push   %rbp
    4861:	48 89 e5             	mov    %rsp,%rbp
    4864:	48 89 7d f8          	mov    %rdi,-0x8(%rbp)
    4868:	90                   	nop
    4869:	5d                   	pop    %rbp
    486a:	c3                   	retq   
    486b:	90                   	nop

000000000000486c <_ZNSt12_Vector_baseIiSaIiEE13_M_deallocateEPim>:
_ZNSt12_Vector_baseIiSaIiEE13_M_deallocateEPim():
/usr/include/c++/9/bits/stl_vector.h:347
      _M_deallocate(pointer __p, size_t __n)
    486c:	f3 0f 1e fa          	endbr64 
    4870:	55                   	push   %rbp
    4871:	48 89 e5             	mov    %rsp,%rbp
    4874:	48 83 ec 20          	sub    $0x20,%rsp
    4878:	48 89 7d f8          	mov    %rdi,-0x8(%rbp)
    487c:	48 89 75 f0          	mov    %rsi,-0x10(%rbp)
    4880:	48 89 55 e8          	mov    %rdx,-0x18(%rbp)
/usr/include/c++/9/bits/stl_vector.h:350
	if (__p)
    4884:	48 83 7d f0 00       	cmpq   $0x0,-0x10(%rbp)
    4889:	74 17                	je     48a2 <_ZNSt12_Vector_baseIiSaIiEE13_M_deallocateEPim+0x36>
/usr/include/c++/9/bits/stl_vector.h:351
	  _Tr::deallocate(_M_impl, __p, __n);
    488b:	48 8b 45 f8          	mov    -0x8(%rbp),%rax
    488f:	48 8b 55 e8          	mov    -0x18(%rbp),%rdx
    4893:	48 8b 4d f0          	mov    -0x10(%rbp),%rcx
    4897:	48 89 ce             	mov    %rcx,%rsi
    489a:	48 89 c7             	mov    %rax,%rdi
    489d:	e8 7d 10 00 00       	callq  591f <_ZNSt16allocator_traitsISaIiEE10deallocateERS0_Pim>
/usr/include/c++/9/bits/stl_vector.h:352
      }
    48a2:	90                   	nop
    48a3:	c9                   	leaveq 
    48a4:	c3                   	retq   
    48a5:	90                   	nop

00000000000048a6 <_ZNSt12_Vector_baseIiSaIiEE19_M_get_Tp_allocatorEv>:
_ZNSt12_Vector_baseIiSaIiEE19_M_get_Tp_allocatorEv():
/usr/include/c++/9/bits/stl_vector.h:273
      _M_get_Tp_allocator() _GLIBCXX_NOEXCEPT
    48a6:	f3 0f 1e fa          	endbr64 
    48aa:	55                   	push   %rbp
    48ab:	48 89 e5             	mov    %rsp,%rbp
    48ae:	48 89 7d f8          	mov    %rdi,-0x8(%rbp)
/usr/include/c++/9/bits/stl_vector.h:274
      { return this->_M_impl; }
    48b2:	48 8b 45 f8          	mov    -0x8(%rbp),%rax
    48b6:	5d                   	pop    %rbp
    48b7:	c3                   	retq   

00000000000048b8 <_ZSt8_DestroyIPiiEvT_S1_RSaIT0_E>:
_ZSt8_DestroyIPiiEvT_S1_RSaIT0_E():
/usr/include/c++/9/bits/stl_construct.h:203
	__traits::destroy(__alloc, std::__addressof(*__first));
    }

  template<typename _ForwardIterator, typename _Tp>
    inline void
    _Destroy(_ForwardIterator __first, _ForwardIterator __last,
    48b8:	f3 0f 1e fa          	endbr64 
    48bc:	55                   	push   %rbp
    48bd:	48 89 e5             	mov    %rsp,%rbp
    48c0:	48 83 ec 20          	sub    $0x20,%rsp
    48c4:	48 89 7d f8          	mov    %rdi,-0x8(%rbp)
    48c8:	48 89 75 f0          	mov    %rsi,-0x10(%rbp)
    48cc:	48 89 55 e8          	mov    %rdx,-0x18(%rbp)
/usr/include/c++/9/bits/stl_construct.h:206
	     allocator<_Tp>&)
    {
      _Destroy(__first, __last);
    48d0:	48 8b 55 f0          	mov    -0x10(%rbp),%rdx
    48d4:	48 8b 45 f8          	mov    -0x8(%rbp),%rax
    48d8:	48 89 d6             	mov    %rdx,%rsi
    48db:	48 89 c7             	mov    %rax,%rdi
    48de:	e8 6e 10 00 00       	callq  5951 <_ZSt8_DestroyIPiEvT_S1_>
/usr/include/c++/9/bits/stl_construct.h:207
    }
    48e3:	90                   	nop
    48e4:	c9                   	leaveq 
    48e5:	c3                   	retq   

00000000000048e6 <_ZNSt16allocator_traitsISaIiEE9constructIiJRKiEEEvRS0_PT_DpOT0_>:
_ZNSt16allocator_traitsISaIiEE9constructIiJRKiEEEvRS0_PT_DpOT0_():
/usr/include/c++/9/bits/alloc_traits.h:481
       *
       *  Calls <tt> __a.construct(__p, std::forward<Args>(__args)...) </tt>
      */
      template<typename _Up, typename... _Args>
	static void
	construct(allocator_type& __a, _Up* __p, _Args&&... __args)
    48e6:	f3 0f 1e fa          	endbr64 
    48ea:	55                   	push   %rbp
    48eb:	48 89 e5             	mov    %rsp,%rbp
    48ee:	48 83 ec 20          	sub    $0x20,%rsp
    48f2:	48 89 7d f8          	mov    %rdi,-0x8(%rbp)
    48f6:	48 89 75 f0          	mov    %rsi,-0x10(%rbp)
    48fa:	48 89 55 e8          	mov    %rdx,-0x18(%rbp)
/usr/include/c++/9/bits/alloc_traits.h:483
	noexcept(std::is_nothrow_constructible<_Up, _Args...>::value)
	{ __a.construct(__p, std::forward<_Args>(__args)...); }
    48fe:	48 8b 45 e8          	mov    -0x18(%rbp),%rax
    4902:	48 89 c7             	mov    %rax,%rdi
    4905:	e8 71 10 00 00       	callq  597b <_ZSt7forwardIRKiEOT_RNSt16remove_referenceIS2_E4typeE>
    490a:	48 89 c2             	mov    %rax,%rdx
    490d:	48 8b 4d f0          	mov    -0x10(%rbp),%rcx
    4911:	48 8b 45 f8          	mov    -0x8(%rbp),%rax
    4915:	48 89 ce             	mov    %rcx,%rsi
    4918:	48 89 c7             	mov    %rax,%rdi
    491b:	e8 6e 10 00 00       	callq  598e <_ZN9__gnu_cxx13new_allocatorIiE9constructIiJRKiEEEvPT_DpOT0_>
    4920:	90                   	nop
    4921:	c9                   	leaveq 
    4922:	c3                   	retq   
    4923:	90                   	nop

0000000000004924 <_ZNSt6vectorIiSaIiEE3endEv>:
_ZNSt6vectorIiSaIiEE3endEv():
/usr/include/c++/9/bits/stl_vector.h:826
      end() _GLIBCXX_NOEXCEPT
    4924:	f3 0f 1e fa          	endbr64 
    4928:	55                   	push   %rbp
    4929:	48 89 e5             	mov    %rsp,%rbp
    492c:	48 83 ec 20          	sub    $0x20,%rsp
    4930:	48 89 7d e8          	mov    %rdi,-0x18(%rbp)
    4934:	64 48 8b 04 25 28 00 	mov    %fs:0x28,%rax
    493b:	00 00 
    493d:	48 89 45 f8          	mov    %rax,-0x8(%rbp)
    4941:	31 c0                	xor    %eax,%eax
/usr/include/c++/9/bits/stl_vector.h:827
      { return iterator(this->_M_impl._M_finish); }
    4943:	48 8b 45 e8          	mov    -0x18(%rbp),%rax
    4947:	48 8d 50 08          	lea    0x8(%rax),%rdx
    494b:	48 8d 45 f0          	lea    -0x10(%rbp),%rax
    494f:	48 89 d6             	mov    %rdx,%rsi
    4952:	48 89 c7             	mov    %rax,%rdi
    4955:	e8 76 10 00 00       	callq  59d0 <_ZN9__gnu_cxx17__normal_iteratorIPiSt6vectorIiSaIiEEEC1ERKS1_>
    495a:	48 8b 45 f0          	mov    -0x10(%rbp),%rax
    495e:	48 8b 4d f8          	mov    -0x8(%rbp),%rcx
    4962:	64 48 33 0c 25 28 00 	xor    %fs:0x28,%rcx
    4969:	00 00 
    496b:	74 05                	je     4972 <_ZNSt6vectorIiSaIiEE3endEv+0x4e>
    496d:	e8 6e dd ff ff       	callq  26e0 <__stack_chk_fail@plt>
    4972:	c9                   	leaveq 
    4973:	c3                   	retq   

0000000000004974 <_ZNSt6vectorIiSaIiEE15_S_use_relocateEv>:
_ZNSt6vectorIiSaIiEE15_S_use_relocateEv():
/usr/include/c++/9/bits/stl_vector.h:441
      _S_use_relocate()
    4974:	f3 0f 1e fa          	endbr64 
    4978:	55                   	push   %rbp
    4979:	48 89 e5             	mov    %rsp,%rbp
    497c:	48 83 ec 10          	sub    $0x10,%rsp
    4980:	64 48 8b 04 25 28 00 	mov    %fs:0x28,%rax
    4987:	00 00 
    4989:	48 89 45 f8          	mov    %rax,-0x8(%rbp)
    498d:	31 c0                	xor    %eax,%eax
/usr/include/c++/9/bits/stl_vector.h:446
	return _S_nothrow_relocate(__is_move_insertable<_Tp_alloc_type>{});
    498f:	e8 16 00 00 00       	callq  49aa <_ZNSt6vectorIiSaIiEE19_S_nothrow_relocateESt17integral_constantIbLb1EE>
/usr/include/c++/9/bits/stl_vector.h:447
      }
    4994:	48 8b 55 f8          	mov    -0x8(%rbp),%rdx
    4998:	64 48 33 14 25 28 00 	xor    %fs:0x28,%rdx
    499f:	00 00 
    49a1:	74 05                	je     49a8 <_ZNSt6vectorIiSaIiEE15_S_use_relocateEv+0x34>
    49a3:	e8 38 dd ff ff       	callq  26e0 <__stack_chk_fail@plt>
    49a8:	c9                   	leaveq 
    49a9:	c3                   	retq   

00000000000049aa <_ZNSt6vectorIiSaIiEE19_S_nothrow_relocateESt17integral_constantIbLb1EE>:
_ZNSt6vectorIiSaIiEE19_S_nothrow_relocateESt17integral_constantIbLb1EE():
/usr/include/c++/9/bits/stl_vector.h:428
      _S_nothrow_relocate(true_type)
    49aa:	f3 0f 1e fa          	endbr64 
    49ae:	55                   	push   %rbp
    49af:	48 89 e5             	mov    %rsp,%rbp
/usr/include/c++/9/bits/stl_vector.h:433
					  std::declval<_Tp_alloc_type&>()));
    49b2:	b8 01 00 00 00       	mov    $0x1,%eax
/usr/include/c++/9/bits/stl_vector.h:434
      }
    49b7:	5d                   	pop    %rbp
    49b8:	c3                   	retq   
    49b9:	90                   	nop

00000000000049ba <_ZNSt6vectorIiSaIiEE17_M_realloc_insertIJRKiEEEvN9__gnu_cxx17__normal_iteratorIPiS1_EEDpOT_>:
_ZNSt6vectorIiSaIiEE17_M_realloc_insertIJRKiEEEvN9__gnu_cxx17__normal_iteratorIPiS1_EEDpOT_():
/usr/include/c++/9/bits/vector.tcc:426

#if __cplusplus >= 201103L
  template<typename _Tp, typename _Alloc>
    template<typename... _Args>
      void
      vector<_Tp, _Alloc>::
    49ba:	f3 0f 1e fa          	endbr64 
    49be:	55                   	push   %rbp
    49bf:	48 89 e5             	mov    %rsp,%rbp
    49c2:	53                   	push   %rbx
    49c3:	48 83 ec 68          	sub    $0x68,%rsp
    49c7:	48 89 7d a8          	mov    %rdi,-0x58(%rbp)
    49cb:	48 89 75 a0          	mov    %rsi,-0x60(%rbp)
    49cf:	48 89 55 98          	mov    %rdx,-0x68(%rbp)
    49d3:	64 48 8b 04 25 28 00 	mov    %fs:0x28,%rax
    49da:	00 00 
    49dc:	48 89 45 e8          	mov    %rax,-0x18(%rbp)
    49e0:	31 c0                	xor    %eax,%eax
/usr/include/c++/9/bits/vector.tcc:435
    void
    vector<_Tp, _Alloc>::
    _M_realloc_insert(iterator __position, const _Tp& __x)
#endif
    {
      const size_type __len =
    49e2:	48 8b 45 a8          	mov    -0x58(%rbp),%rax
    49e6:	48 8d 15 54 5a 00 00 	lea    0x5a54(%rip),%rdx        # a441 <_ZL12total_events+0x435>
    49ed:	be 01 00 00 00       	mov    $0x1,%esi
    49f2:	48 89 c7             	mov    %rax,%rdi
    49f5:	e8 f8 0f 00 00       	callq  59f2 <_ZNKSt6vectorIiSaIiEE12_M_check_lenEmPKc>
    49fa:	48 89 45 c0          	mov    %rax,-0x40(%rbp)
/usr/include/c++/9/bits/vector.tcc:437
	_M_check_len(size_type(1), "vector::_M_realloc_insert");
      pointer __old_start = this->_M_impl._M_start;
    49fe:	48 8b 45 a8          	mov    -0x58(%rbp),%rax
    4a02:	48 8b 00             	mov    (%rax),%rax
    4a05:	48 89 45 c8          	mov    %rax,-0x38(%rbp)
/usr/include/c++/9/bits/vector.tcc:438
      pointer __old_finish = this->_M_impl._M_finish;
    4a09:	48 8b 45 a8          	mov    -0x58(%rbp),%rax
    4a0d:	48 8b 40 08          	mov    0x8(%rax),%rax
    4a11:	48 89 45 d0          	mov    %rax,-0x30(%rbp)
/usr/include/c++/9/bits/vector.tcc:439
      const size_type __elems_before = __position - begin();
    4a15:	48 8b 45 a8          	mov    -0x58(%rbp),%rax
    4a19:	48 89 c7             	mov    %rax,%rdi
    4a1c:	e8 c1 10 00 00       	callq  5ae2 <_ZNSt6vectorIiSaIiEE5beginEv>
    4a21:	48 89 45 b0          	mov    %rax,-0x50(%rbp)
    4a25:	48 8d 55 b0          	lea    -0x50(%rbp),%rdx
    4a29:	48 8d 45 a0          	lea    -0x60(%rbp),%rax
    4a2d:	48 89 d6             	mov    %rdx,%rsi
    4a30:	48 89 c7             	mov    %rax,%rdi
    4a33:	e8 f6 10 00 00       	callq  5b2e <_ZN9__gnu_cxxmiIPiSt6vectorIiSaIiEEEENS_17__normal_iteratorIT_T0_E15difference_typeERKS8_SB_>
    4a38:	48 89 45 d8          	mov    %rax,-0x28(%rbp)
/usr/include/c++/9/bits/vector.tcc:440
      pointer __new_start(this->_M_allocate(__len));
    4a3c:	48 8b 45 a8          	mov    -0x58(%rbp),%rax
    4a40:	48 8b 55 c0          	mov    -0x40(%rbp),%rdx
    4a44:	48 89 d6             	mov    %rdx,%rsi
    4a47:	48 89 c7             	mov    %rax,%rdi
    4a4a:	e8 23 11 00 00       	callq  5b72 <_ZNSt12_Vector_baseIiSaIiEE11_M_allocateEm>
    4a4f:	48 89 45 e0          	mov    %rax,-0x20(%rbp)
/usr/include/c++/9/bits/vector.tcc:441
      pointer __new_finish(__new_start);
    4a53:	48 8b 45 e0          	mov    -0x20(%rbp),%rax
    4a57:	48 89 45 b8          	mov    %rax,-0x48(%rbp)
/usr/include/c++/9/bits/vector.tcc:449
	  // The order of the three operations is dictated by the C++11
	  // case, where the moves could alter a new element belonging
	  // to the existing vector.  This is an issue only for callers
	  // taking the element by lvalue ref (see last bullet of C++11
	  // [res.on.arguments]).
	  _Alloc_traits::construct(this->_M_impl,
    4a5b:	48 8b 45 98          	mov    -0x68(%rbp),%rax
    4a5f:	48 89 c7             	mov    %rax,%rdi
    4a62:	e8 14 0f 00 00       	callq  597b <_ZSt7forwardIRKiEOT_RNSt16remove_referenceIS2_E4typeE>
    4a67:	48 89 c2             	mov    %rax,%rdx
/usr/include/c++/9/bits/vector.tcc:450
				   __new_start + __elems_before,
    4a6a:	48 8b 45 d8          	mov    -0x28(%rbp),%rax
    4a6e:	48 8d 0c 85 00 00 00 	lea    0x0(,%rax,4),%rcx
    4a75:	00 
/usr/include/c++/9/bits/vector.tcc:449
	  _Alloc_traits::construct(this->_M_impl,
    4a76:	48 8b 45 e0          	mov    -0x20(%rbp),%rax
    4a7a:	48 01 c1             	add    %rax,%rcx
    4a7d:	48 8b 45 a8          	mov    -0x58(%rbp),%rax
    4a81:	48 89 ce             	mov    %rcx,%rsi
    4a84:	48 89 c7             	mov    %rax,%rdi
    4a87:	e8 5a fe ff ff       	callq  48e6 <_ZNSt16allocator_traitsISaIiEE9constructIiJRKiEEEvRS0_PT_DpOT0_>
/usr/include/c++/9/bits/vector.tcc:456
#if __cplusplus >= 201103L
				   std::forward<_Args>(__args)...);
#else
				   __x);
#endif
	  __new_finish = pointer();
    4a8c:	48 c7 45 b8 00 00 00 	movq   $0x0,-0x48(%rbp)
    4a93:	00 
/usr/include/c++/9/bits/vector.tcc:459

#if __cplusplus >= 201103L
	  if _GLIBCXX17_CONSTEXPR (_S_use_relocate())
    4a94:	e8 db fe ff ff       	callq  4974 <_ZNSt6vectorIiSaIiEE15_S_use_relocateEv>
    4a99:	84 c0                	test   %al,%al
    4a9b:	74 71                	je     4b0e <_ZNSt6vectorIiSaIiEE17_M_realloc_insertIJRKiEEEvN9__gnu_cxx17__normal_iteratorIPiS1_EEDpOT_+0x154>
/usr/include/c++/9/bits/vector.tcc:462
	    {
	      __new_finish = _S_relocate(__old_start, __position.base(),
					 __new_start, _M_get_Tp_allocator());
    4a9d:	48 8b 45 a8          	mov    -0x58(%rbp),%rax
    4aa1:	48 89 c7             	mov    %rax,%rdi
    4aa4:	e8 fd fd ff ff       	callq  48a6 <_ZNSt12_Vector_baseIiSaIiEE19_M_get_Tp_allocatorEv>
    4aa9:	48 89 c3             	mov    %rax,%rbx
/usr/include/c++/9/bits/vector.tcc:461
	      __new_finish = _S_relocate(__old_start, __position.base(),
    4aac:	48 8d 45 a0          	lea    -0x60(%rbp),%rax
    4ab0:	48 89 c7             	mov    %rax,%rdi
    4ab3:	e8 4a 11 00 00       	callq  5c02 <_ZNK9__gnu_cxx17__normal_iteratorIPiSt6vectorIiSaIiEEE4baseEv>
    4ab8:	48 8b 30             	mov    (%rax),%rsi
    4abb:	48 8b 55 e0          	mov    -0x20(%rbp),%rdx
    4abf:	48 8b 45 c8          	mov    -0x38(%rbp),%rax
    4ac3:	48 89 d9             	mov    %rbx,%rcx
    4ac6:	48 89 c7             	mov    %rax,%rdi
    4ac9:	e8 db 10 00 00       	callq  5ba9 <_ZNSt6vectorIiSaIiEE11_S_relocateEPiS2_S2_RS0_>
    4ace:	48 89 45 b8          	mov    %rax,-0x48(%rbp)
/usr/include/c++/9/bits/vector.tcc:464

	      ++__new_finish;
    4ad2:	48 83 45 b8 04       	addq   $0x4,-0x48(%rbp)
/usr/include/c++/9/bits/vector.tcc:467

	      __new_finish = _S_relocate(__position.base(), __old_finish,
					 __new_finish, _M_get_Tp_allocator());
    4ad7:	48 8b 45 a8          	mov    -0x58(%rbp),%rax
    4adb:	48 89 c7             	mov    %rax,%rdi
    4ade:	e8 c3 fd ff ff       	callq  48a6 <_ZNSt12_Vector_baseIiSaIiEE19_M_get_Tp_allocatorEv>
    4ae3:	48 89 c3             	mov    %rax,%rbx
/usr/include/c++/9/bits/vector.tcc:466
	      __new_finish = _S_relocate(__position.base(), __old_finish,
    4ae6:	48 8d 45 a0          	lea    -0x60(%rbp),%rax
    4aea:	48 89 c7             	mov    %rax,%rdi
    4aed:	e8 10 11 00 00       	callq  5c02 <_ZNK9__gnu_cxx17__normal_iteratorIPiSt6vectorIiSaIiEEE4baseEv>
    4af2:	48 8b 00             	mov    (%rax),%rax
    4af5:	48 8b 55 b8          	mov    -0x48(%rbp),%rdx
    4af9:	48 8b 75 d0          	mov    -0x30(%rbp),%rsi
    4afd:	48 89 d9             	mov    %rbx,%rcx
    4b00:	48 89 c7             	mov    %rax,%rdi
    4b03:	e8 a1 10 00 00       	callq  5ba9 <_ZNSt6vectorIiSaIiEE11_S_relocateEPiS2_S2_RS0_>
    4b08:	48 89 45 b8          	mov    %rax,-0x48(%rbp)
    4b0c:	eb 6f                	jmp    4b7d <_ZNSt6vectorIiSaIiEE17_M_realloc_insertIJRKiEEEvN9__gnu_cxx17__normal_iteratorIPiS1_EEDpOT_+0x1c3>
/usr/include/c++/9/bits/vector.tcc:475
#endif
	    {
	      __new_finish
		= std::__uninitialized_move_if_noexcept_a
		(__old_start, __position.base(),
		 __new_start, _M_get_Tp_allocator());
    4b0e:	48 8b 45 a8          	mov    -0x58(%rbp),%rax
    4b12:	48 89 c7             	mov    %rax,%rdi
    4b15:	e8 8c fd ff ff       	callq  48a6 <_ZNSt12_Vector_baseIiSaIiEE19_M_get_Tp_allocatorEv>
    4b1a:	48 89 c3             	mov    %rax,%rbx
/usr/include/c++/9/bits/vector.tcc:474
		(__old_start, __position.base(),
    4b1d:	48 8d 45 a0          	lea    -0x60(%rbp),%rax
    4b21:	48 89 c7             	mov    %rax,%rdi
    4b24:	e8 d9 10 00 00       	callq  5c02 <_ZNK9__gnu_cxx17__normal_iteratorIPiSt6vectorIiSaIiEEE4baseEv>
    4b29:	48 8b 30             	mov    (%rax),%rsi
    4b2c:	48 8b 55 e0          	mov    -0x20(%rbp),%rdx
    4b30:	48 8b 45 c8          	mov    -0x38(%rbp),%rax
    4b34:	48 89 d9             	mov    %rbx,%rcx
    4b37:	48 89 c7             	mov    %rax,%rdi
    4b3a:	e8 d5 10 00 00       	callq  5c14 <_ZSt34__uninitialized_move_if_noexcept_aIPiS0_SaIiEET0_T_S3_S2_RT1_>
    4b3f:	48 89 45 b8          	mov    %rax,-0x48(%rbp)
/usr/include/c++/9/bits/vector.tcc:477

	      ++__new_finish;
    4b43:	48 83 45 b8 04       	addq   $0x4,-0x48(%rbp)
/usr/include/c++/9/bits/vector.tcc:482

	      __new_finish
		= std::__uninitialized_move_if_noexcept_a
		(__position.base(), __old_finish,
		 __new_finish, _M_get_Tp_allocator());
    4b48:	48 8b 45 a8          	mov    -0x58(%rbp),%rax
    4b4c:	48 89 c7             	mov    %rax,%rdi
    4b4f:	e8 52 fd ff ff       	callq  48a6 <_ZNSt12_Vector_baseIiSaIiEE19_M_get_Tp_allocatorEv>
    4b54:	48 89 c3             	mov    %rax,%rbx
/usr/include/c++/9/bits/vector.tcc:481
		(__position.base(), __old_finish,
    4b57:	48 8d 45 a0          	lea    -0x60(%rbp),%rax
    4b5b:	48 89 c7             	mov    %rax,%rdi
    4b5e:	e8 9f 10 00 00       	callq  5c02 <_ZNK9__gnu_cxx17__normal_iteratorIPiSt6vectorIiSaIiEEE4baseEv>
    4b63:	48 8b 00             	mov    (%rax),%rax
    4b66:	48 8b 55 b8          	mov    -0x48(%rbp),%rdx
    4b6a:	48 8b 75 d0          	mov    -0x30(%rbp),%rsi
    4b6e:	48 89 d9             	mov    %rbx,%rcx
    4b71:	48 89 c7             	mov    %rax,%rdi
    4b74:	e8 9b 10 00 00       	callq  5c14 <_ZSt34__uninitialized_move_if_noexcept_aIPiS0_SaIiEET0_T_S3_S2_RT1_>
/usr/include/c++/9/bits/vector.tcc:481 (discriminator 1)
    4b79:	48 89 45 b8          	mov    %rax,-0x48(%rbp)
/usr/include/c++/9/bits/vector.tcc:496
	    std::_Destroy(__new_start, __new_finish, _M_get_Tp_allocator());
	  _M_deallocate(__new_start, __len);
	  __throw_exception_again;
	}
#if __cplusplus >= 201103L
      if _GLIBCXX17_CONSTEXPR (!_S_use_relocate())
    4b7d:	e8 f2 fd ff ff       	callq  4974 <_ZNSt6vectorIiSaIiEE15_S_use_relocateEv>
    4b82:	83 f0 01             	xor    $0x1,%eax
    4b85:	84 c0                	test   %al,%al
    4b87:	74 22                	je     4bab <_ZNSt6vectorIiSaIiEE17_M_realloc_insertIJRKiEEEvN9__gnu_cxx17__normal_iteratorIPiS1_EEDpOT_+0x1f1>
/usr/include/c++/9/bits/vector.tcc:498
#endif
	std::_Destroy(__old_start, __old_finish, _M_get_Tp_allocator());
    4b89:	48 8b 45 a8          	mov    -0x58(%rbp),%rax
    4b8d:	48 89 c7             	mov    %rax,%rdi
    4b90:	e8 11 fd ff ff       	callq  48a6 <_ZNSt12_Vector_baseIiSaIiEE19_M_get_Tp_allocatorEv>
    4b95:	48 89 c2             	mov    %rax,%rdx
    4b98:	48 8b 4d d0          	mov    -0x30(%rbp),%rcx
    4b9c:	48 8b 45 c8          	mov    -0x38(%rbp),%rax
    4ba0:	48 89 ce             	mov    %rcx,%rsi
    4ba3:	48 89 c7             	mov    %rax,%rdi
    4ba6:	e8 0d fd ff ff       	callq  48b8 <_ZSt8_DestroyIPiiEvT_S1_RSaIT0_E>
/usr/include/c++/9/bits/vector.tcc:500
      _GLIBCXX_ASAN_ANNOTATE_REINIT;
      _M_deallocate(__old_start,
    4bab:	48 8b 45 a8          	mov    -0x58(%rbp),%rax
/usr/include/c++/9/bits/vector.tcc:501
		    this->_M_impl._M_end_of_storage - __old_start);
    4baf:	48 8b 55 a8          	mov    -0x58(%rbp),%rdx
    4bb3:	48 8b 52 10          	mov    0x10(%rdx),%rdx
    4bb7:	48 2b 55 c8          	sub    -0x38(%rbp),%rdx
    4bbb:	48 c1 fa 02          	sar    $0x2,%rdx
/usr/include/c++/9/bits/vector.tcc:500
      _M_deallocate(__old_start,
    4bbf:	48 8b 4d c8          	mov    -0x38(%rbp),%rcx
    4bc3:	48 89 ce             	mov    %rcx,%rsi
    4bc6:	48 89 c7             	mov    %rax,%rdi
    4bc9:	e8 9e fc ff ff       	callq  486c <_ZNSt12_Vector_baseIiSaIiEE13_M_deallocateEPim>
/usr/include/c++/9/bits/vector.tcc:502
      this->_M_impl._M_start = __new_start;
    4bce:	48 8b 45 a8          	mov    -0x58(%rbp),%rax
    4bd2:	48 8b 55 e0          	mov    -0x20(%rbp),%rdx
    4bd6:	48 89 10             	mov    %rdx,(%rax)
/usr/include/c++/9/bits/vector.tcc:503
      this->_M_impl._M_finish = __new_finish;
    4bd9:	48 8b 45 a8          	mov    -0x58(%rbp),%rax
    4bdd:	48 8b 55 b8          	mov    -0x48(%rbp),%rdx
    4be1:	48 89 50 08          	mov    %rdx,0x8(%rax)
/usr/include/c++/9/bits/vector.tcc:504
      this->_M_impl._M_end_of_storage = __new_start + __len;
    4be5:	48 8b 45 c0          	mov    -0x40(%rbp),%rax
    4be9:	48 8d 14 85 00 00 00 	lea    0x0(,%rax,4),%rdx
    4bf0:	00 
    4bf1:	48 8b 45 e0          	mov    -0x20(%rbp),%rax
    4bf5:	48 01 c2             	add    %rax,%rdx
    4bf8:	48 8b 45 a8          	mov    -0x58(%rbp),%rax
    4bfc:	48 89 50 10          	mov    %rdx,0x10(%rax)
/usr/include/c++/9/bits/vector.tcc:505
    }
    4c00:	90                   	nop
    4c01:	48 8b 45 e8          	mov    -0x18(%rbp),%rax
    4c05:	64 48 33 04 25 28 00 	xor    %fs:0x28,%rax
    4c0c:	00 00 
    4c0e:	0f 84 96 00 00 00    	je     4caa <_ZNSt6vectorIiSaIiEE17_M_realloc_insertIJRKiEEEvN9__gnu_cxx17__normal_iteratorIPiS1_EEDpOT_+0x2f0>
    4c14:	e9 8c 00 00 00       	jmpq   4ca5 <_ZNSt6vectorIiSaIiEE17_M_realloc_insertIJRKiEEEvN9__gnu_cxx17__normal_iteratorIPiS1_EEDpOT_+0x2eb>
    4c19:	f3 0f 1e fa          	endbr64 
/usr/include/c++/9/bits/vector.tcc:485
      __catch(...)
    4c1d:	48 89 c7             	mov    %rax,%rdi
    4c20:	e8 3b d9 ff ff       	callq  2560 <__cxa_begin_catch@plt>
/usr/include/c++/9/bits/vector.tcc:487
	  if (!__new_finish)
    4c25:	48 83 7d b8 00       	cmpq   $0x0,-0x48(%rbp)
    4c2a:	75 24                	jne    4c50 <_ZNSt6vectorIiSaIiEE17_M_realloc_insertIJRKiEEEvN9__gnu_cxx17__normal_iteratorIPiS1_EEDpOT_+0x296>
/usr/include/c++/9/bits/vector.tcc:489
				   __new_start + __elems_before);
    4c2c:	48 8b 45 d8          	mov    -0x28(%rbp),%rax
    4c30:	48 8d 14 85 00 00 00 	lea    0x0(,%rax,4),%rdx
    4c37:	00 
/usr/include/c++/9/bits/vector.tcc:488
	    _Alloc_traits::destroy(this->_M_impl,
    4c38:	48 8b 45 e0          	mov    -0x20(%rbp),%rax
    4c3c:	48 01 c2             	add    %rax,%rdx
    4c3f:	48 8b 45 a8          	mov    -0x58(%rbp),%rax
    4c43:	48 89 d6             	mov    %rdx,%rsi
    4c46:	48 89 c7             	mov    %rax,%rdi
    4c49:	e8 1e 10 00 00       	callq  5c6c <_ZNSt16allocator_traitsISaIiEE7destroyIiEEvRS0_PT_>
    4c4e:	eb 22                	jmp    4c72 <_ZNSt6vectorIiSaIiEE17_M_realloc_insertIJRKiEEEvN9__gnu_cxx17__normal_iteratorIPiS1_EEDpOT_+0x2b8>
/usr/include/c++/9/bits/vector.tcc:491
	    std::_Destroy(__new_start, __new_finish, _M_get_Tp_allocator());
    4c50:	48 8b 45 a8          	mov    -0x58(%rbp),%rax
    4c54:	48 89 c7             	mov    %rax,%rdi
    4c57:	e8 4a fc ff ff       	callq  48a6 <_ZNSt12_Vector_baseIiSaIiEE19_M_get_Tp_allocatorEv>
    4c5c:	48 89 c2             	mov    %rax,%rdx
    4c5f:	48 8b 4d b8          	mov    -0x48(%rbp),%rcx
    4c63:	48 8b 45 e0          	mov    -0x20(%rbp),%rax
    4c67:	48 89 ce             	mov    %rcx,%rsi
    4c6a:	48 89 c7             	mov    %rax,%rdi
    4c6d:	e8 46 fc ff ff       	callq  48b8 <_ZSt8_DestroyIPiiEvT_S1_RSaIT0_E>
/usr/include/c++/9/bits/vector.tcc:492
	  _M_deallocate(__new_start, __len);
    4c72:	48 8b 45 a8          	mov    -0x58(%rbp),%rax
    4c76:	48 8b 55 c0          	mov    -0x40(%rbp),%rdx
    4c7a:	48 8b 4d e0          	mov    -0x20(%rbp),%rcx
    4c7e:	48 89 ce             	mov    %rcx,%rsi
    4c81:	48 89 c7             	mov    %rax,%rdi
    4c84:	e8 e3 fb ff ff       	callq  486c <_ZNSt12_Vector_baseIiSaIiEE13_M_deallocateEPim>
/usr/include/c++/9/bits/vector.tcc:493
	  __throw_exception_again;
    4c89:	e8 42 db ff ff       	callq  27d0 <__cxa_rethrow@plt>
    4c8e:	f3 0f 1e fa          	endbr64 
    4c92:	48 89 c3             	mov    %rax,%rbx
/usr/include/c++/9/bits/vector.tcc:485
      __catch(...)
    4c95:	e8 96 db ff ff       	callq  2830 <__cxa_end_catch@plt>
    4c9a:	48 89 d8             	mov    %rbx,%rax
    4c9d:	48 89 c7             	mov    %rax,%rdi
    4ca0:	e8 bb db ff ff       	callq  2860 <_Unwind_Resume@plt>
/usr/include/c++/9/bits/vector.tcc:505
    }
    4ca5:	e8 36 da ff ff       	callq  26e0 <__stack_chk_fail@plt>
    4caa:	48 83 c4 68          	add    $0x68,%rsp
    4cae:	5b                   	pop    %rbx
    4caf:	5d                   	pop    %rbp
    4cb0:	c3                   	retq   
    4cb1:	90                   	nop

0000000000004cb2 <_ZN9__gnu_cxx13new_allocatorIPKcEC1Ev>:
_ZN9__gnu_cxx13new_allocatorIPKcEC2Ev():
/usr/include/c++/9/ext/new_allocator.h:80
      new_allocator() _GLIBCXX_USE_NOEXCEPT { }
    4cb2:	f3 0f 1e fa          	endbr64 
    4cb6:	55                   	push   %rbp
    4cb7:	48 89 e5             	mov    %rsp,%rbp
    4cba:	48 89 7d f8          	mov    %rdi,-0x8(%rbp)
    4cbe:	90                   	nop
    4cbf:	5d                   	pop    %rbp
    4cc0:	c3                   	retq   
_ZN9__gnu_cxx13new_allocatorIPKcEC1Ev():
    4cc1:	90                   	nop

0000000000004cc2 <_ZN9__gnu_cxx13new_allocatorIPKcED1Ev>:
_ZN9__gnu_cxx13new_allocatorIPKcED2Ev():
/usr/include/c++/9/ext/new_allocator.h:89
      ~new_allocator() _GLIBCXX_USE_NOEXCEPT { }
    4cc2:	f3 0f 1e fa          	endbr64 
    4cc6:	55                   	push   %rbp
    4cc7:	48 89 e5             	mov    %rsp,%rbp
    4cca:	48 89 7d f8          	mov    %rdi,-0x8(%rbp)
    4cce:	90                   	nop
    4ccf:	5d                   	pop    %rbp
    4cd0:	c3                   	retq   
    4cd1:	90                   	nop

0000000000004cd2 <_ZNSt12_Vector_baseIPKcSaIS1_EE12_Vector_implD1Ev>:
_ZNSt12_Vector_baseIPKcSaIS1_EE12_Vector_implD2Ev():
/usr/include/c++/9/bits/stl_vector.h:125
      struct _Vector_impl
    4cd2:	f3 0f 1e fa          	endbr64 
    4cd6:	55                   	push   %rbp
    4cd7:	48 89 e5             	mov    %rsp,%rbp
    4cda:	48 83 ec 10          	sub    $0x10,%rsp
    4cde:	48 89 7d f8          	mov    %rdi,-0x8(%rbp)
    4ce2:	48 8b 45 f8          	mov    -0x8(%rbp),%rax
    4ce6:	48 89 c7             	mov    %rax,%rdi
    4ce9:	e8 16 f3 ff ff       	callq  4004 <_ZNSaIPKcED1Ev>
    4cee:	90                   	nop
    4cef:	c9                   	leaveq 
    4cf0:	c3                   	retq   
    4cf1:	90                   	nop

0000000000004cf2 <_ZNSt12_Vector_baseIPKcSaIS1_EEC1ERKS2_>:
_ZNSt12_Vector_baseIPKcSaIS1_EEC2ERKS2_():
/usr/include/c++/9/bits/stl_vector.h:290
      _Vector_base(const allocator_type& __a) _GLIBCXX_NOEXCEPT
    4cf2:	f3 0f 1e fa          	endbr64 
    4cf6:	55                   	push   %rbp
    4cf7:	48 89 e5             	mov    %rsp,%rbp
    4cfa:	48 83 ec 10          	sub    $0x10,%rsp
    4cfe:	48 89 7d f8          	mov    %rdi,-0x8(%rbp)
    4d02:	48 89 75 f0          	mov    %rsi,-0x10(%rbp)
/usr/include/c++/9/bits/stl_vector.h:291
      : _M_impl(__a) { }
    4d06:	48 8b 45 f8          	mov    -0x8(%rbp),%rax
    4d0a:	48 8b 55 f0          	mov    -0x10(%rbp),%rdx
    4d0e:	48 89 d6             	mov    %rdx,%rsi
    4d11:	48 89 c7             	mov    %rax,%rdi
    4d14:	e8 7d 0f 00 00       	callq  5c96 <_ZNSt12_Vector_baseIPKcSaIS1_EE12_Vector_implC1ERKS2_>
    4d19:	90                   	nop
    4d1a:	c9                   	leaveq 
    4d1b:	c3                   	retq   

0000000000004d1c <_ZNSt12_Vector_baseIPKcSaIS1_EED1Ev>:
_ZNSt12_Vector_baseIPKcSaIS1_EED2Ev():
/usr/include/c++/9/bits/stl_vector.h:330
      ~_Vector_base() _GLIBCXX_NOEXCEPT
    4d1c:	f3 0f 1e fa          	endbr64 
    4d20:	55                   	push   %rbp
    4d21:	48 89 e5             	mov    %rsp,%rbp
    4d24:	48 83 ec 10          	sub    $0x10,%rsp
    4d28:	48 89 7d f8          	mov    %rdi,-0x8(%rbp)
/usr/include/c++/9/bits/stl_vector.h:333
		      _M_impl._M_end_of_storage - _M_impl._M_start);
    4d2c:	48 8b 45 f8          	mov    -0x8(%rbp),%rax
    4d30:	48 8b 50 10          	mov    0x10(%rax),%rdx
    4d34:	48 8b 45 f8          	mov    -0x8(%rbp),%rax
    4d38:	48 8b 00             	mov    (%rax),%rax
    4d3b:	48 29 c2             	sub    %rax,%rdx
    4d3e:	48 89 d0             	mov    %rdx,%rax
    4d41:	48 c1 f8 03          	sar    $0x3,%rax
/usr/include/c++/9/bits/stl_vector.h:332
	_M_deallocate(_M_impl._M_start,
    4d45:	48 89 c2             	mov    %rax,%rdx
    4d48:	48 8b 45 f8          	mov    -0x8(%rbp),%rax
    4d4c:	48 8b 08             	mov    (%rax),%rcx
    4d4f:	48 8b 45 f8          	mov    -0x8(%rbp),%rax
    4d53:	48 89 ce             	mov    %rcx,%rsi
    4d56:	48 89 c7             	mov    %rax,%rdi
    4d59:	e8 6e 0f 00 00       	callq  5ccc <_ZNSt12_Vector_baseIPKcSaIS1_EE13_M_deallocateEPS1_m>
/usr/include/c++/9/bits/stl_vector.h:334
      }
    4d5e:	48 8b 45 f8          	mov    -0x8(%rbp),%rax
    4d62:	48 89 c7             	mov    %rax,%rdi
    4d65:	e8 68 ff ff ff       	callq  4cd2 <_ZNSt12_Vector_baseIPKcSaIS1_EE12_Vector_implD1Ev>
    4d6a:	90                   	nop
    4d6b:	c9                   	leaveq 
    4d6c:	c3                   	retq   
    4d6d:	90                   	nop

0000000000004d6e <_ZNKSt16initializer_listIPKcE5beginEv>:
_ZNKSt16initializer_listIPKcE5beginEv():
/usr/include/c++/9/initializer_list:75
      constexpr size_type
      size() const noexcept { return _M_len; }

      // First element.
      constexpr const_iterator
      begin() const noexcept { return _M_array; }
    4d6e:	f3 0f 1e fa          	endbr64 
    4d72:	55                   	push   %rbp
    4d73:	48 89 e5             	mov    %rsp,%rbp
    4d76:	48 89 7d f8          	mov    %rdi,-0x8(%rbp)
    4d7a:	48 8b 45 f8          	mov    -0x8(%rbp),%rax
    4d7e:	48 8b 00             	mov    (%rax),%rax
    4d81:	5d                   	pop    %rbp
    4d82:	c3                   	retq   
    4d83:	90                   	nop

0000000000004d84 <_ZNKSt16initializer_listIPKcE3endEv>:
_ZNKSt16initializer_listIPKcE3endEv():
/usr/include/c++/9/initializer_list:79

      // One past the last element.
      constexpr const_iterator
      end() const noexcept { return begin() + size(); }
    4d84:	f3 0f 1e fa          	endbr64 
    4d88:	55                   	push   %rbp
    4d89:	48 89 e5             	mov    %rsp,%rbp
    4d8c:	53                   	push   %rbx
    4d8d:	48 83 ec 18          	sub    $0x18,%rsp
    4d91:	48 89 7d e8          	mov    %rdi,-0x18(%rbp)
    4d95:	48 8b 45 e8          	mov    -0x18(%rbp),%rax
    4d99:	48 89 c7             	mov    %rax,%rdi
    4d9c:	e8 cd ff ff ff       	callq  4d6e <_ZNKSt16initializer_listIPKcE5beginEv>
    4da1:	48 89 c3             	mov    %rax,%rbx
    4da4:	48 8b 45 e8          	mov    -0x18(%rbp),%rax
    4da8:	48 89 c7             	mov    %rax,%rdi
    4dab:	e8 56 0f 00 00       	callq  5d06 <_ZNKSt16initializer_listIPKcE4sizeEv>
    4db0:	48 c1 e0 03          	shl    $0x3,%rax
    4db4:	48 01 d8             	add    %rbx,%rax
    4db7:	48 83 c4 18          	add    $0x18,%rsp
    4dbb:	5b                   	pop    %rbx
    4dbc:	5d                   	pop    %rbp
    4dbd:	c3                   	retq   

0000000000004dbe <_ZNSt6vectorIPKcSaIS1_EE19_M_range_initializeIPKS1_EEvT_S7_St20forward_iterator_tag>:
_ZNSt6vectorIPKcSaIS1_EE19_M_range_initializeIPKS1_EEvT_S7_St20forward_iterator_tag():
/usr/include/c++/9/bits/stl_vector.h:1574
	}

      // Called by the second initialize_dispatch above
      template<typename _ForwardIterator>
	void
	_M_range_initialize(_ForwardIterator __first, _ForwardIterator __last,
    4dbe:	f3 0f 1e fa          	endbr64 
    4dc2:	55                   	push   %rbp
    4dc3:	48 89 e5             	mov    %rsp,%rbp
    4dc6:	53                   	push   %rbx
    4dc7:	48 83 ec 38          	sub    $0x38,%rsp
    4dcb:	48 89 7d d8          	mov    %rdi,-0x28(%rbp)
    4dcf:	48 89 75 d0          	mov    %rsi,-0x30(%rbp)
    4dd3:	48 89 55 c8          	mov    %rdx,-0x38(%rbp)
/usr/include/c++/9/bits/stl_vector.h:1577
			    std::forward_iterator_tag)
	{
	  const size_type __n = std::distance(__first, __last);
    4dd7:	48 8b 55 c8          	mov    -0x38(%rbp),%rdx
    4ddb:	48 8b 45 d0          	mov    -0x30(%rbp),%rax
    4ddf:	48 89 d6             	mov    %rdx,%rsi
    4de2:	48 89 c7             	mov    %rax,%rdi
    4de5:	e8 32 0f 00 00       	callq  5d1c <_ZSt8distanceIPKPKcENSt15iterator_traitsIT_E15difference_typeES5_S5_>
    4dea:	48 89 45 e8          	mov    %rax,-0x18(%rbp)
/usr/include/c++/9/bits/stl_vector.h:1579
	  this->_M_impl._M_start
	    = this->_M_allocate(_S_check_init_len(__n, _M_get_Tp_allocator()));
    4dee:	48 8b 5d d8          	mov    -0x28(%rbp),%rbx
    4df2:	48 8b 45 d8          	mov    -0x28(%rbp),%rax
    4df6:	48 89 c7             	mov    %rax,%rdi
    4df9:	e8 74 00 00 00       	callq  4e72 <_ZNSt12_Vector_baseIPKcSaIS1_EE19_M_get_Tp_allocatorEv>
    4dfe:	48 89 c2             	mov    %rax,%rdx
    4e01:	48 8b 45 e8          	mov    -0x18(%rbp),%rax
    4e05:	48 89 d6             	mov    %rdx,%rsi
